
gpi_i3c_led.elf:     file format elf32-littleriscv
gpi_i3c_led.elf
architecture: riscv:rv32, flags 0x00000112:
EXEC_P, HAS_SYMS, D_PAGED
start address 0x00000000

Program Header:
    LOAD off    0x00001000 vaddr 0x00000000 paddr 0x00000000 align 2**12
         filesz 0x00001e14 memsz 0x00002b80 flags rwx

Sections:
Idx Name           Size      VMA       LMA       File off  Algn  Flags
  0 .text          00001a30  00000000  00000000  00001000  2**4  CONTENTS, ALLOC, LOAD, READONLY, CODE
  1 .gprof         00000000  00001a30  00001a30  00002e14  2**2  CONTENTS
  2 .ctors         00000000  00001a30  00001a30  00002e14  2**2  CONTENTS
  3 .dtors         00000000  00001a30  00001a30  00002e14  2**2  CONTENTS
  4 .rodata        000003d0  00001a30  00001a30  00002a30  2**2  CONTENTS, ALLOC, LOAD, READONLY, DATA
  5 .data          00000014  00001e00  00001e00  00002e00  2**2  CONTENTS, ALLOC, LOAD, DATA
  6 .bss           0000025c  00001e18  00001e18  00002e14  2**3  ALLOC
  7 .heap          00000100  00002078  00002078  00002e14  2**3  ALLOC
  8 .stack         00000a00  00002180  00002180  00002e14  2**4  ALLOC
  9 .debug_info    00003594  00000000  00000000  00002e14  2**0  CONTENTS, READONLY, DEBUGGING, OCTETS
 10 .debug_abbrev  00000d7b  00000000  00000000  000063a8  2**0  CONTENTS, READONLY, DEBUGGING, OCTETS
 11 .debug_aranges 00000388  00000000  00000000  00007128  2**3  CONTENTS, READONLY, DEBUGGING, OCTETS
 12 .debug_ranges  00000378  00000000  00000000  000074b0  2**3  CONTENTS, READONLY, DEBUGGING, OCTETS
 13 .debug_macro   000037aa  00000000  00000000  00007828  2**0  CONTENTS, READONLY, DEBUGGING, OCTETS
 14 .debug_line    000056fc  00000000  00000000  0000afd2  2**0  CONTENTS, READONLY, DEBUGGING, OCTETS
 15 .debug_str     0000bc8a  00000000  00000000  000106ce  2**0  CONTENTS, READONLY, DEBUGGING, OCTETS
 16 .comment       00000033  00000000  00000000  0001c358  2**0  CONTENTS, READONLY
 17 .debug_frame   00000ba8  00000000  00000000  0001c38c  2**2  CONTENTS, READONLY, DEBUGGING, OCTETS
SYMBOL TABLE:
00000000 l    d  .text	00000000 .text
00001a30 l    d  .gprof	00000000 .gprof
00001a30 l    d  .ctors	00000000 .ctors
00001a30 l    d  .dtors	00000000 .dtors
00001a30 l    d  .rodata	00000000 .rodata
00001e00 l    d  .data	00000000 .data
00001e18 l    d  .bss	00000000 .bss
00002078 l    d  .heap	00000000 .heap
00002180 l    d  .stack	00000000 .stack
00000000 l    d  .debug_info	00000000 .debug_info
00000000 l    d  .debug_abbrev	00000000 .debug_abbrev
00000000 l    d  .debug_aranges	00000000 .debug_aranges
00000000 l    d  .debug_ranges	00000000 .debug_ranges
00000000 l    d  .debug_macro	00000000 .debug_macro
00000000 l    d  .debug_line	00000000 .debug_line
00000000 l    d  .debug_str	00000000 .debug_str
00000000 l    d  .comment	00000000 .comment
00000000 l    d  .debug_frame	00000000 .debug_frame
00000000 l    df *ABS*	00000000 ./src/bsp/driver/riscv_mc/crt0.o
0000017c l       .text	00000000 crtInit
00000068 l       .text	00000000 __handle_isr
0000005a l       .text	00000000 __handle_esr
0000006a l       .text	00000000 __handle_exit
00000214 l       .text	00000000 bss_init
00000220 l       .text	00000000 bss_loop
0000022c l       .text	00000000 bss_done
00000232 l       .text	00000000 infinitLoop
00000000 l    df *ABS*	00000000 uart.c
00000000 l    df *ABS*	00000000 exit.c
00000000 l    df *ABS*	00000000 interrupt.c
00000000 l    df *ABS*	00000000 iob.c
00001e18 l     O .bss	00000004 s_putc_func
00001e1c l     O .bss	00000004 s_getc_func
00001e20 l     O .bss	00000004 s_flush_func
00000386 l     F .text	0000003c iob_putc
000003c2 l     F .text	00000030 iob_getc
000003f2 l     F .text	00000030 iob_flush
00001e00 l     O .data	00000014 __stdio
00000000 l    df *ABS*	00000000 pic.c
00000000 l    df *ABS*	00000000 reg_access.c
00000000 l    df *ABS*	00000000 i3c_target.c
00000000 l    df *ABS*	00000000 i3c_controller.c
00000766 l     F .text	000000c6 i3c_master_entdaa_config
00000000 l    df *ABS*	00000000 gpio.c
00000000 l    df *ABS*	00000000 main.c
00000eda l     F .text	00000054 lscc_uart_putc
00000f2e l     F .text	00000014 lscc_uart_getc
00000f42 l     F .text	00000014 lscc_uart_flush
00000f56 l     F .text	0000003a simple_delay_ms
00000f90 l     F .text	0000003e set_led_all_off
00000fce l     F .text	00000026 set_led_on
00000ff4 l     F .text	0000003c set_led_all_on
00001030 l     F .text	00000060 set_led_bar
00001090 l     F .text	00000026 halt_with_blink_error
000010b6 l     F .text	0000006e bsp_init
00000000 l    df *ABS*	00000000 utils.c
00000000 l    df *ABS*	00000000 printf.c
00000000 l    df *ABS*	00000000 puts.c
00000000 l    df *ABS*	00000000 vfiprintf.c
000014c0 l     F .text	0000003e __ultoa_invert
00000000 l    df *ABS*	00000000 strnlen.c
00000000 l    df *ABS*	00000000 fputc.c
00000e52 g     F .text	0000004e gpio_output_write
0000145e g     F .text	00000026 printf
00002614 g       .data	00000000 __global_pointer$
000019d6 g     F .text	00000028 .hidden __riscv_save_8
00000682 g     F .text	000000e4 i3c_master_init
00001a22 g     F .text	0000000c .hidden __riscv_restore_3
00001a0e g     F .text	00000020 .hidden __riscv_restore_10
000019d6 g     F .text	00000028 .hidden __riscv_save_11
00000644 g     F .text	0000003e i3c_target_fifo_loopback_enable
00000524 g     F .text	00000074 reg_8b_modify
00001a30 g       .text	00000000 _etext
0000044a g     F .text	0000003a pic_int_pending
00000c46 g     F .text	00000138 i3c_master_private_i3c_write
00001a30 g       .ctors	00000000 _ctors_end
00001a22 g     F .text	0000000c .hidden __riscv_restore_2
00000246 g     F .text	000000c4 irq_callback
0000030a g     F .text	00000044 esr_callback
00002048 g     O .bss	00000010 i3c_devinfo
000004b0 g     F .text	00000046 reg_32b_modify
00001484 g     F .text	0000003c puts
00001e18 g       .bss	00000000 _bss_start
000019ce g     F .text	00000030 .hidden __riscv_save_12
0000082c g     F .text	000002b8 i3c_master_daa
00000484 g     F .text	0000002c reg_32b_read
000014fe g     F .text	00000498 __i_vfprintf
00001a0e g     F .text	00000020 .hidden __riscv_restore_11
000019fe g     F .text	0000000c .hidden __riscv_save_1
00001a22 g     F .text	0000000c .hidden __riscv_restore_0
000019e4 g     F .text	0000001a .hidden __riscv_save_7
00001a18 g     F .text	00000016 .hidden __riscv_restore_5
00001e24 g     O .bss	00000004 pic_dev
0000034e g     F .text	00000038 iob_init
00001996 g     F .text	00000018 strnlen
00001a18 g     F .text	00000016 .hidden __riscv_restore_6
00002074 g       .bss	00000000 _bss_end
000019d6 g     F .text	00000028 .hidden __riscv_save_9
000019e4 g     F .text	0000001a .hidden __riscv_save_4
00000090 g     F .text	0000008a uart_init
000004f6 g     F .text	0000002e reg_8b_write
000019fe g     F .text	0000000c .hidden __riscv_save_3
00001e28 g     O .bss	00000001 wr_buf
00001fb8 g     O .bss	00000058 uart_core_uart
00000000 g       .text	00000000 _ftext
00000000 g       .text	00000000 _start
00001a30 g       .ctors	00000000 _ctors_start
00002010 g     O .bss	00000034 i3cm
000019d6 g     F .text	00000028 .hidden __riscv_save_10
00001a18 g     F .text	00000016 .hidden __riscv_restore_4
00001a0e g     F .text	00000020 .hidden __riscv_restore_8
000019e4 g     F .text	0000001a .hidden __riscv_save_6
00000a00 g       *ABS*	00000000 _STACK_SIZE
00001442  w    F .text	0000001c delayMS
00001a0e g     F .text	00000020 .hidden __riscv_restore_9
00001a18 g     F .text	00000016 .hidden __riscv_restore_7
00001124 g     F .text	000002de main
00000010 g       .text	00000000 trap_entry
00000100 g       *ABS*	00000000 _HEAP_SIZE
0000011a g     F .text	00000062 uart_putc
00000422 g     F .text	00000028 pic_int_clear
00001402 g     F .text	00000040 delayCycle
000019ae g     F .text	00000020 putc
00002b80 g       .stack	00000000 _stack_start
00001f30 g     O .bss	00000088 gpio_inst
000019ae g     F .text	00000020 fputc
000019fe g     F .text	0000000c .hidden __riscv_save_2
00000ea0 g     F .text	0000003a gpio_input_get
000019e4 g     F .text	0000001a .hidden __riscv_save_5
00000000 g     F *ABS*	000004f2 vfscanf
00001e30 g     O .bss	00000100 int_table
00001a0a g     F .text	00000024 .hidden __riscv_restore_12
00001e2c g     O .bss	00000001 rd_buf
000019fe g     F .text	0000000c .hidden __riscv_save_0
0000023a  w    F .text	0000000c _exit
00000598 g     F .text	00000034 reg_8b_read
000005cc g     F .text	00000078 i3c_target_init
00001a64  w    O .rodata	0000000c __iob
00000d7e g     F .text	000000d4 gpio_init
00001a22 g     F .text	0000000c .hidden __riscv_restore_1
00000ae4 g     F .text	00000162 i3c_master_private_i3c_read
00002058 g     O .bss	0000001c i3cs
00001a30 g       .dtors	00000000 _dtors_start
000014fe g     F .text	000004ee vfprintf



Disassembly of section .text:

00000000 <_ftext>:
_ftext():
C:\Users\billzhang\Desktop\I3C_XO5\sw_I3C_XO5\gpi_i3c_led\Debug/../src/bsp/driver/riscv_mc/crt0.S:9
.global main
.weak   irq_callback
.weak   esr_callback

_start:
  j crtInit
       0:	17c0006f          	j	17c <crtInit>
	...

00000010 <trap_entry>:
trap_entry():
C:\Users\billzhang\Desktop\I3C_XO5\sw_I3C_XO5\gpi_i3c_led\Debug/../src/bsp/driver/riscv_mc/crt0.S:14

.global  trap_entry
.align 4
trap_entry:
  sw x1,  - 1*4(sp)
      10:	fe112e23          	sw	ra,-4(sp)
C:\Users\billzhang\Desktop\I3C_XO5\sw_I3C_XO5\gpi_i3c_led\Debug/../src/bsp/driver/riscv_mc/crt0.S:15
  sw x5,  - 2*4(sp)
      14:	fe512c23          	sw	t0,-8(sp)
C:\Users\billzhang\Desktop\I3C_XO5\sw_I3C_XO5\gpi_i3c_led\Debug/../src/bsp/driver/riscv_mc/crt0.S:16
  sw x6,  - 3*4(sp)
      18:	fe612a23          	sw	t1,-12(sp)
C:\Users\billzhang\Desktop\I3C_XO5\sw_I3C_XO5\gpi_i3c_led\Debug/../src/bsp/driver/riscv_mc/crt0.S:17
  sw x7,  - 4*4(sp)
      1c:	fe712823          	sw	t2,-16(sp)
C:\Users\billzhang\Desktop\I3C_XO5\sw_I3C_XO5\gpi_i3c_led\Debug/../src/bsp/driver/riscv_mc/crt0.S:18
  sw x10, - 5*4(sp)
      20:	fea12623          	sw	a0,-20(sp)
C:\Users\billzhang\Desktop\I3C_XO5\sw_I3C_XO5\gpi_i3c_led\Debug/../src/bsp/driver/riscv_mc/crt0.S:19
  sw x11, - 6*4(sp)
      24:	feb12423          	sw	a1,-24(sp)
C:\Users\billzhang\Desktop\I3C_XO5\sw_I3C_XO5\gpi_i3c_led\Debug/../src/bsp/driver/riscv_mc/crt0.S:20
  sw x12, - 7*4(sp)
      28:	fec12223          	sw	a2,-28(sp)
C:\Users\billzhang\Desktop\I3C_XO5\sw_I3C_XO5\gpi_i3c_led\Debug/../src/bsp/driver/riscv_mc/crt0.S:21
  sw x13, - 8*4(sp)
      2c:	fed12023          	sw	a3,-32(sp)
C:\Users\billzhang\Desktop\I3C_XO5\sw_I3C_XO5\gpi_i3c_led\Debug/../src/bsp/driver/riscv_mc/crt0.S:22
  sw x14, - 9*4(sp)
      30:	fce12e23          	sw	a4,-36(sp)
C:\Users\billzhang\Desktop\I3C_XO5\sw_I3C_XO5\gpi_i3c_led\Debug/../src/bsp/driver/riscv_mc/crt0.S:23
  sw x15, -10*4(sp)
      34:	fcf12c23          	sw	a5,-40(sp)
C:\Users\billzhang\Desktop\I3C_XO5\sw_I3C_XO5\gpi_i3c_led\Debug/../src/bsp/driver/riscv_mc/crt0.S:27
#ifdef __riscv_32e
  addi sp,sp,-10*4
#else
  sw x16, -11*4(sp)
      38:	fd012a23          	sw	a6,-44(sp)
C:\Users\billzhang\Desktop\I3C_XO5\sw_I3C_XO5\gpi_i3c_led\Debug/../src/bsp/driver/riscv_mc/crt0.S:28
  sw x17, -12*4(sp)
      3c:	fd112823          	sw	a7,-48(sp)
C:\Users\billzhang\Desktop\I3C_XO5\sw_I3C_XO5\gpi_i3c_led\Debug/../src/bsp/driver/riscv_mc/crt0.S:29
  sw x28, -13*4(sp)
      40:	fdc12623          	sw	t3,-52(sp)
C:\Users\billzhang\Desktop\I3C_XO5\sw_I3C_XO5\gpi_i3c_led\Debug/../src/bsp/driver/riscv_mc/crt0.S:30
  sw x29, -14*4(sp)
      44:	fdd12423          	sw	t4,-56(sp)
C:\Users\billzhang\Desktop\I3C_XO5\sw_I3C_XO5\gpi_i3c_led\Debug/../src/bsp/driver/riscv_mc/crt0.S:31
  sw x30, -15*4(sp)
      48:	fde12223          	sw	t5,-60(sp)
C:\Users\billzhang\Desktop\I3C_XO5\sw_I3C_XO5\gpi_i3c_led\Debug/../src/bsp/driver/riscv_mc/crt0.S:32
  sw x31, -16*4(sp)
      4c:	fdf12023          	sw	t6,-64(sp)
C:\Users\billzhang\Desktop\I3C_XO5\sw_I3C_XO5\gpi_i3c_led\Debug/../src/bsp/driver/riscv_mc/crt0.S:33
  addi sp,sp,-16*4
      50:	7139                	addi	sp,sp,-64
C:\Users\billzhang\Desktop\I3C_XO5\sw_I3C_XO5\gpi_i3c_led\Debug/../src/bsp/driver/riscv_mc/crt0.S:35
#endif
  csrr a0, mcause    // load mcause value as parameter
      52:	34202573          	csrr	a0,mcause
C:\Users\billzhang\Desktop\I3C_XO5\sw_I3C_XO5\gpi_i3c_led\Debug/../src/bsp/driver/riscv_mc/crt0.S:36
  bltz a0, __handle_isr
      56:	00054963          	bltz	a0,68 <__handle_isr>

0000005a <__handle_esr>:
__handle_esr():
C:\Users\billzhang\Desktop\I3C_XO5\sw_I3C_XO5\gpi_i3c_led\Debug/../src/bsp/driver/riscv_mc/crt0.S:38
__handle_esr:
  csrr a1, mepc
      5a:	341025f3          	csrr	a1,mepc
C:\Users\billzhang\Desktop\I3C_XO5\sw_I3C_XO5\gpi_i3c_led\Debug/../src/bsp/driver/riscv_mc/crt0.S:39
  mv   a2, sp
      5e:	860a                	mv	a2,sp
C:\Users\billzhang\Desktop\I3C_XO5\sw_I3C_XO5\gpi_i3c_led\Debug/../src/bsp/driver/riscv_mc/crt0.S:40
  call esr_callback
      60:	246d                	jal	30a <esr_callback>
      62:	34151073          	csrw	mepc,a0
      66:	a011                	j	6a <__handle_exit>

00000068 <__handle_isr>:
__handle_isr():
C:\Users\billzhang\Desktop\I3C_XO5\sw_I3C_XO5\gpi_i3c_led\Debug/../src/bsp/driver/riscv_mc/crt0.S:41
  csrw mepc, a0
      68:	2af9                	jal	246 <irq_callback>

0000006a <__handle_exit>:
__handle_exit():
C:\Users\billzhang\Desktop\I3C_XO5\sw_I3C_XO5\gpi_i3c_led\Debug/../src/bsp/driver/riscv_mc/crt0.S:41
      6a:	50f2                	lw	ra,60(sp)
C:\Users\billzhang\Desktop\I3C_XO5\sw_I3C_XO5\gpi_i3c_led\Debug/../src/bsp/driver/riscv_mc/crt0.S:42
  j    __handle_exit
      6c:	52e2                	lw	t0,56(sp)
C:\Users\billzhang\Desktop\I3C_XO5\sw_I3C_XO5\gpi_i3c_led\Debug/../src/bsp/driver/riscv_mc/crt0.S:44
__handle_isr:
  call irq_callback
      6e:	5352                	lw	t1,52(sp)
      70:	53c2                	lw	t2,48(sp)
      72:	5532                	lw	a0,44(sp)
      74:	55a2                	lw	a1,40(sp)
C:\Users\billzhang\Desktop\I3C_XO5\sw_I3C_XO5\gpi_i3c_led\Debug/../src/bsp/driver/riscv_mc/crt0.S:59
  lw x13, 2*4(sp)
  lw x14, 1*4(sp)
  lw x15, 0*4(sp)
  addi sp,sp,10*4
#else
  lw x1 , 15*4(sp)
      76:	5612                	lw	a2,36(sp)
C:\Users\billzhang\Desktop\I3C_XO5\sw_I3C_XO5\gpi_i3c_led\Debug/../src/bsp/driver/riscv_mc/crt0.S:60
  lw x5,  14*4(sp)
      78:	5682                	lw	a3,32(sp)
C:\Users\billzhang\Desktop\I3C_XO5\sw_I3C_XO5\gpi_i3c_led\Debug/../src/bsp/driver/riscv_mc/crt0.S:61
  lw x6,  13*4(sp)
      7a:	4772                	lw	a4,28(sp)
C:\Users\billzhang\Desktop\I3C_XO5\sw_I3C_XO5\gpi_i3c_led\Debug/../src/bsp/driver/riscv_mc/crt0.S:62
  lw x7,  12*4(sp)
      7c:	47e2                	lw	a5,24(sp)
C:\Users\billzhang\Desktop\I3C_XO5\sw_I3C_XO5\gpi_i3c_led\Debug/../src/bsp/driver/riscv_mc/crt0.S:63
  lw x10, 11*4(sp)
      7e:	4852                	lw	a6,20(sp)
C:\Users\billzhang\Desktop\I3C_XO5\sw_I3C_XO5\gpi_i3c_led\Debug/../src/bsp/driver/riscv_mc/crt0.S:64
  lw x11, 10*4(sp)
      80:	48c2                	lw	a7,16(sp)
C:\Users\billzhang\Desktop\I3C_XO5\sw_I3C_XO5\gpi_i3c_led\Debug/../src/bsp/driver/riscv_mc/crt0.S:65
  lw x12,  9*4(sp)
      82:	4e32                	lw	t3,12(sp)
C:\Users\billzhang\Desktop\I3C_XO5\sw_I3C_XO5\gpi_i3c_led\Debug/../src/bsp/driver/riscv_mc/crt0.S:66
  lw x13,  8*4(sp)
      84:	4ea2                	lw	t4,8(sp)
C:\Users\billzhang\Desktop\I3C_XO5\sw_I3C_XO5\gpi_i3c_led\Debug/../src/bsp/driver/riscv_mc/crt0.S:67
  lw x14,  7*4(sp)
      86:	4f12                	lw	t5,4(sp)
C:\Users\billzhang\Desktop\I3C_XO5\sw_I3C_XO5\gpi_i3c_led\Debug/../src/bsp/driver/riscv_mc/crt0.S:68
  lw x15,  6*4(sp)
      88:	4f82                	lw	t6,0(sp)
C:\Users\billzhang\Desktop\I3C_XO5\sw_I3C_XO5\gpi_i3c_led\Debug/../src/bsp/driver/riscv_mc/crt0.S:69
  lw x16,  5*4(sp)
      8a:	6121                	addi	sp,sp,64
C:\Users\billzhang\Desktop\I3C_XO5\sw_I3C_XO5\gpi_i3c_led\Debug/../src/bsp/driver/riscv_mc/crt0.S:70
  lw x17,  4*4(sp)
      8c:	30200073          	mret

00000090 <uart_init>:
uart_init():
C:\Users\billzhang\Desktop\I3C_XO5\sw_I3C_XO5\gpi_i3c_led\Debug/../src/bsp/driver/uart/uart.c:173
unsigned char uart_init(struct uart_instance *this_uart,
			unsigned int base_addr,
			unsigned int sys_clk,
			unsigned int baud_rate,
			unsigned char stop_bits, unsigned char data_width)
{
      90:	7139                	addi	sp,sp,-64
      92:	de22                	sw	s0,60(sp)
      94:	0080                	addi	s0,sp,64
      96:	fca42e23          	sw	a0,-36(s0)
      9a:	fcb42c23          	sw	a1,-40(s0)
      9e:	fcc42a23          	sw	a2,-44(s0)
      a2:	fcd42823          	sw	a3,-48(s0)
      a6:	86ba                	mv	a3,a4
      a8:	873e                	mv	a4,a5
      aa:	87b6                	mv	a5,a3
      ac:	fcf407a3          	sb	a5,-49(s0)
      b0:	87ba                	mv	a5,a4
      b2:	fcf40723          	sb	a5,-50(s0)
C:\Users\billzhang\Desktop\I3C_XO5\sw_I3C_XO5\gpi_i3c_led\Debug/../src/bsp/driver/uart/uart.c:175
	volatile struct uart_dev *dev;
	if (NULL == this_uart) {
      b6:	fdc42783          	lw	a5,-36(s0)
      ba:	e399                	bnez	a5,c0 <uart_init+0x30>
C:\Users\billzhang\Desktop\I3C_XO5\sw_I3C_XO5\gpi_i3c_led\Debug/../src/bsp/driver/uart/uart.c:176
		return 1;
      bc:	4785                	li	a5,1
      be:	a891                	j	112 <_HEAP_SIZE+0x12>
C:\Users\billzhang\Desktop\I3C_XO5\sw_I3C_XO5\gpi_i3c_led\Debug/../src/bsp/driver/uart/uart.c:178
	}
	this_uart->base = base_addr;
      c0:	fdc42783          	lw	a5,-36(s0)
      c4:	fd842703          	lw	a4,-40(s0)
      c8:	c3d8                	sw	a4,4(a5)
C:\Users\billzhang\Desktop\I3C_XO5\sw_I3C_XO5\gpi_i3c_led\Debug/../src/bsp/driver/uart/uart.c:179
	dev = (volatile struct uart_dev *) (this_uart->base);
      ca:	fdc42783          	lw	a5,-36(s0)
      ce:	43dc                	lw	a5,4(a5)
      d0:	fef42623          	sw	a5,-20(s0)
C:\Users\billzhang\Desktop\I3C_XO5\sw_I3C_XO5\gpi_i3c_led\Debug/../src/bsp/driver/uart/uart.c:182

	/*initialize the instance data */
	this_uart->base = base_addr;
      d4:	fdc42783          	lw	a5,-36(s0)
      d8:	fd842703          	lw	a4,-40(s0)
      dc:	c3d8                	sw	a4,4(a5)
C:\Users\billzhang\Desktop\I3C_XO5\sw_I3C_XO5\gpi_i3c_led\Debug/../src/bsp/driver/uart/uart.c:183
	this_uart->sys_clk = sys_clk;
      de:	fdc42783          	lw	a5,-36(s0)
      e2:	fd442703          	lw	a4,-44(s0)
      e6:	c798                	sw	a4,8(a5)
C:\Users\billzhang\Desktop\I3C_XO5\sw_I3C_XO5\gpi_i3c_led\Debug/../src/bsp/driver/uart/uart.c:184
	this_uart->baudrate = baud_rate;
      e8:	fdc42783          	lw	a5,-36(s0)
      ec:	fd042703          	lw	a4,-48(s0)
      f0:	cb98                	sw	a4,16(a5)
C:\Users\billzhang\Desktop\I3C_XO5\sw_I3C_XO5\gpi_i3c_led\Debug/../src/bsp/driver/uart/uart.c:185
	this_uart->databits = data_width;
      f2:	fce44703          	lbu	a4,-50(s0)
      f6:	fdc42783          	lw	a5,-36(s0)
      fa:	cbd8                	sw	a4,20(a5)
C:\Users\billzhang\Desktop\I3C_XO5\sw_I3C_XO5\gpi_i3c_led\Debug/../src/bsp/driver/uart/uart.c:186
	this_uart->stopbits = stop_bits;
      fc:	fcf44703          	lbu	a4,-49(s0)
     100:	fdc42783          	lw	a5,-36(s0)
     104:	cf98                	sw	a4,24(a5)
C:\Users\billzhang\Desktop\I3C_XO5\sw_I3C_XO5\gpi_i3c_led\Debug/../src/bsp/driver/uart/uart.c:191

	/* set the data-configuration */
	//uart_config(this_uart, 8, 0, 0, 1);

	this_uart->blockingTx = 1;
     106:	fdc42783          	lw	a5,-36(s0)
     10a:	4705                	li	a4,1
     10c:	00e78f23          	sb	a4,30(a5)
C:\Users\billzhang\Desktop\I3C_XO5\sw_I3C_XO5\gpi_i3c_led\Debug/../src/bsp/driver/uart/uart.c:218
		pic_isr_register(this_uart->intrLevel, uart_isr, this_uart);	//uart_isr have two parameter!!!!!
	}
#endif

	/* all done! */
	return 0;
     110:	4781                	li	a5,0
C:\Users\billzhang\Desktop\I3C_XO5\sw_I3C_XO5\gpi_i3c_led\Debug/../src/bsp/driver/uart/uart.c:219
}
     112:	853e                	mv	a0,a5
     114:	5472                	lw	s0,60(sp)
     116:	6121                	addi	sp,sp,64
     118:	8082                	ret

0000011a <uart_putc>:
uart_putc():
C:\Users\billzhang\Desktop\I3C_XO5\sw_I3C_XO5\gpi_i3c_led\Debug/../src/bsp/driver/uart/uart.c:291
 * Returns 0 if no error
 ***************************************************************
*/
unsigned char uart_putc(struct uart_instance *this_uart,
			unsigned char ucChar)
{
     11a:	7179                	addi	sp,sp,-48
     11c:	d622                	sw	s0,44(sp)
     11e:	1800                	addi	s0,sp,48
     120:	fca42e23          	sw	a0,-36(s0)
     124:	87ae                	mv	a5,a1
     126:	fcf40da3          	sb	a5,-37(s0)
C:\Users\billzhang\Desktop\I3C_XO5\sw_I3C_XO5\gpi_i3c_led\Debug/../src/bsp/driver/uart/uart.c:294
	volatile unsigned char uiValue;
	volatile struct uart_dev *dev;
	if (NULL == this_uart) {
     12a:	fdc42783          	lw	a5,-36(s0)
     12e:	e399                	bnez	a5,134 <uart_putc+0x1a>
C:\Users\billzhang\Desktop\I3C_XO5\sw_I3C_XO5\gpi_i3c_led\Debug/../src/bsp/driver/uart/uart.c:295
		return 1;
     130:	4785                	li	a5,1
     132:	a089                	j	174 <uart_putc+0x5a>
C:\Users\billzhang\Desktop\I3C_XO5\sw_I3C_XO5\gpi_i3c_led\Debug/../src/bsp/driver/uart/uart.c:297
	}
	dev = (volatile struct uart_dev *) (this_uart->base);
     134:	fdc42783          	lw	a5,-36(s0)
     138:	43dc                	lw	a5,4(a5)
     13a:	fef42623          	sw	a5,-20(s0)
C:\Users\billzhang\Desktop\I3C_XO5\sw_I3C_XO5\gpi_i3c_led\Debug/../src/bsp/driver/uart/uart.c:329
	} else
#endif
	{
		do {
			/* if uart's ready to accept character, send immediately */
			uiValue = dev->lsr;
     13e:	fec42783          	lw	a5,-20(s0)
     142:	4bdc                	lw	a5,20(a5)
     144:	0ff7f793          	zext.b	a5,a5
     148:	fef405a3          	sb	a5,-21(s0)
C:\Users\billzhang\Desktop\I3C_XO5\sw_I3C_XO5\gpi_i3c_led\Debug/../src/bsp/driver/uart/uart.c:330
			if (uiValue & UART_LSR_TX_RDY_MASK) {
     14c:	feb44783          	lbu	a5,-21(s0)
     150:	0ff7f793          	zext.b	a5,a5
     154:	0207f793          	andi	a5,a5,32
     158:	cb81                	beqz	a5,168 <uart_putc+0x4e>
C:\Users\billzhang\Desktop\I3C_XO5\sw_I3C_XO5\gpi_i3c_led\Debug/../src/bsp/driver/uart/uart.c:331
				dev->rxtx = ucChar;
     15a:	fdb44703          	lbu	a4,-37(s0)
     15e:	fec42783          	lw	a5,-20(s0)
     162:	c398                	sw	a4,0(a5)
C:\Users\billzhang\Desktop\I3C_XO5\sw_I3C_XO5\gpi_i3c_led\Debug/../src/bsp/driver/uart/uart.c:332
				return (0);
     164:	4781                	li	a5,0
     166:	a039                	j	174 <uart_putc+0x5a>
C:\Users\billzhang\Desktop\I3C_XO5\sw_I3C_XO5\gpi_i3c_led\Debug/../src/bsp/driver/uart/uart.c:336
			}

			/* if non-blocking tx, return immediately */
			if (this_uart->blockingTx == 0)
     168:	fdc42783          	lw	a5,-36(s0)
     16c:	01e7c783          	lbu	a5,30(a5)
     170:	f7f9                	bnez	a5,13e <uart_putc+0x24>
C:\Users\billzhang\Desktop\I3C_XO5\sw_I3C_XO5\gpi_i3c_led\Debug/../src/bsp/driver/uart/uart.c:337
				return (UART_ERR_WOULD_BLOCK);
     172:	4785                	li	a5,1
C:\Users\billzhang\Desktop\I3C_XO5\sw_I3C_XO5\gpi_i3c_led\Debug/../src/bsp/driver/uart/uart.c:344
		} while (1);
	}

	/* all done */
	return 0;
}
     174:	853e                	mv	a0,a5
     176:	5432                	lw	s0,44(sp)
     178:	6145                	addi	sp,sp,48
     17a:	8082                	ret

0000017c <crtInit>:
crtInit():
C:\Users\billzhang\Desktop\I3C_XO5\sw_I3C_XO5\gpi_i3c_led\Debug/../src/bsp/driver/riscv_mc/crt0.S:83
  .text


crtInit:

  mv x1, zero
     17c:	00000093          	li	ra,0
C:\Users\billzhang\Desktop\I3C_XO5\sw_I3C_XO5\gpi_i3c_led\Debug/../src/bsp/driver/riscv_mc/crt0.S:84
  mv x2, zero
     180:	00000113          	li	sp,0
C:\Users\billzhang\Desktop\I3C_XO5\sw_I3C_XO5\gpi_i3c_led\Debug/../src/bsp/driver/riscv_mc/crt0.S:85
  mv x3, zero
     184:	00000193          	li	gp,0
C:\Users\billzhang\Desktop\I3C_XO5\sw_I3C_XO5\gpi_i3c_led\Debug/../src/bsp/driver/riscv_mc/crt0.S:86
  mv x4, zero
     188:	00000213          	li	tp,0
C:\Users\billzhang\Desktop\I3C_XO5\sw_I3C_XO5\gpi_i3c_led\Debug/../src/bsp/driver/riscv_mc/crt0.S:87
  mv x5, zero
     18c:	00000293          	li	t0,0
C:\Users\billzhang\Desktop\I3C_XO5\sw_I3C_XO5\gpi_i3c_led\Debug/../src/bsp/driver/riscv_mc/crt0.S:88
  mv x6, zero
     190:	00000313          	li	t1,0
C:\Users\billzhang\Desktop\I3C_XO5\sw_I3C_XO5\gpi_i3c_led\Debug/../src/bsp/driver/riscv_mc/crt0.S:89
  mv x7, zero
     194:	00000393          	li	t2,0
C:\Users\billzhang\Desktop\I3C_XO5\sw_I3C_XO5\gpi_i3c_led\Debug/../src/bsp/driver/riscv_mc/crt0.S:90
  mv x8, zero
     198:	00000413          	li	s0,0
C:\Users\billzhang\Desktop\I3C_XO5\sw_I3C_XO5\gpi_i3c_led\Debug/../src/bsp/driver/riscv_mc/crt0.S:91
  mv x9, zero
     19c:	00000493          	li	s1,0
C:\Users\billzhang\Desktop\I3C_XO5\sw_I3C_XO5\gpi_i3c_led\Debug/../src/bsp/driver/riscv_mc/crt0.S:92
  mv x10, zero
     1a0:	00000513          	li	a0,0
C:\Users\billzhang\Desktop\I3C_XO5\sw_I3C_XO5\gpi_i3c_led\Debug/../src/bsp/driver/riscv_mc/crt0.S:93
  mv x11, zero
     1a4:	00000593          	li	a1,0
C:\Users\billzhang\Desktop\I3C_XO5\sw_I3C_XO5\gpi_i3c_led\Debug/../src/bsp/driver/riscv_mc/crt0.S:94
  mv x12, zero
     1a8:	00000613          	li	a2,0
C:\Users\billzhang\Desktop\I3C_XO5\sw_I3C_XO5\gpi_i3c_led\Debug/../src/bsp/driver/riscv_mc/crt0.S:95
  mv x13, zero
     1ac:	00000693          	li	a3,0
C:\Users\billzhang\Desktop\I3C_XO5\sw_I3C_XO5\gpi_i3c_led\Debug/../src/bsp/driver/riscv_mc/crt0.S:96
  mv x14, zero
     1b0:	00000713          	li	a4,0
C:\Users\billzhang\Desktop\I3C_XO5\sw_I3C_XO5\gpi_i3c_led\Debug/../src/bsp/driver/riscv_mc/crt0.S:97
  mv x15, zero
     1b4:	00000793          	li	a5,0
C:\Users\billzhang\Desktop\I3C_XO5\sw_I3C_XO5\gpi_i3c_led\Debug/../src/bsp/driver/riscv_mc/crt0.S:99
#ifndef __riscv_32e
  mv x16, zero
     1b8:	00000813          	li	a6,0
C:\Users\billzhang\Desktop\I3C_XO5\sw_I3C_XO5\gpi_i3c_led\Debug/../src/bsp/driver/riscv_mc/crt0.S:100
  mv x17, zero
     1bc:	00000893          	li	a7,0
C:\Users\billzhang\Desktop\I3C_XO5\sw_I3C_XO5\gpi_i3c_led\Debug/../src/bsp/driver/riscv_mc/crt0.S:101
  mv x18, zero
     1c0:	00000913          	li	s2,0
C:\Users\billzhang\Desktop\I3C_XO5\sw_I3C_XO5\gpi_i3c_led\Debug/../src/bsp/driver/riscv_mc/crt0.S:102
  mv x19, zero
     1c4:	00000993          	li	s3,0
C:\Users\billzhang\Desktop\I3C_XO5\sw_I3C_XO5\gpi_i3c_led\Debug/../src/bsp/driver/riscv_mc/crt0.S:103
  mv x20, zero
     1c8:	00000a13          	li	s4,0
C:\Users\billzhang\Desktop\I3C_XO5\sw_I3C_XO5\gpi_i3c_led\Debug/../src/bsp/driver/riscv_mc/crt0.S:104
  mv x21, zero
     1cc:	00000a93          	li	s5,0
C:\Users\billzhang\Desktop\I3C_XO5\sw_I3C_XO5\gpi_i3c_led\Debug/../src/bsp/driver/riscv_mc/crt0.S:105
  mv x22, zero
     1d0:	00000b13          	li	s6,0
C:\Users\billzhang\Desktop\I3C_XO5\sw_I3C_XO5\gpi_i3c_led\Debug/../src/bsp/driver/riscv_mc/crt0.S:106
  mv x23, zero
     1d4:	00000b93          	li	s7,0
C:\Users\billzhang\Desktop\I3C_XO5\sw_I3C_XO5\gpi_i3c_led\Debug/../src/bsp/driver/riscv_mc/crt0.S:107
  mv x24, zero
     1d8:	00000c13          	li	s8,0
C:\Users\billzhang\Desktop\I3C_XO5\sw_I3C_XO5\gpi_i3c_led\Debug/../src/bsp/driver/riscv_mc/crt0.S:108
  mv x25, zero
     1dc:	00000c93          	li	s9,0
C:\Users\billzhang\Desktop\I3C_XO5\sw_I3C_XO5\gpi_i3c_led\Debug/../src/bsp/driver/riscv_mc/crt0.S:109
  mv x26, zero
     1e0:	00000d13          	li	s10,0
C:\Users\billzhang\Desktop\I3C_XO5\sw_I3C_XO5\gpi_i3c_led\Debug/../src/bsp/driver/riscv_mc/crt0.S:110
  mv x27, zero
     1e4:	00000d93          	li	s11,0
C:\Users\billzhang\Desktop\I3C_XO5\sw_I3C_XO5\gpi_i3c_led\Debug/../src/bsp/driver/riscv_mc/crt0.S:111
  mv x28, zero
     1e8:	00000e13          	li	t3,0
C:\Users\billzhang\Desktop\I3C_XO5\sw_I3C_XO5\gpi_i3c_led\Debug/../src/bsp/driver/riscv_mc/crt0.S:112
  mv x29, zero
     1ec:	00000e93          	li	t4,0
C:\Users\billzhang\Desktop\I3C_XO5\sw_I3C_XO5\gpi_i3c_led\Debug/../src/bsp/driver/riscv_mc/crt0.S:113
  mv x30, zero
     1f0:	00000f13          	li	t5,0
C:\Users\billzhang\Desktop\I3C_XO5\sw_I3C_XO5\gpi_i3c_led\Debug/../src/bsp/driver/riscv_mc/crt0.S:114
  mv x31, zero
     1f4:	00000f93          	li	t6,0
C:\Users\billzhang\Desktop\I3C_XO5\sw_I3C_XO5\gpi_i3c_led\Debug/../src/bsp/driver/riscv_mc/crt0.S:116
#endif
  la t0, trap_entry
     1f8:	01000293          	li	t0,16
C:\Users\billzhang\Desktop\I3C_XO5\sw_I3C_XO5\gpi_i3c_led\Debug/../src/bsp/driver/riscv_mc/crt0.S:117
  csrw mtvec, t0
     1fc:	30529073          	csrw	mtvec,t0
C:\Users\billzhang\Desktop\I3C_XO5\sw_I3C_XO5\gpi_i3c_led\Debug/../src/bsp/driver/riscv_mc/crt0.S:118
  csrwi mstatus, 0
     200:	30005073          	csrwi	mstatus,0
C:\Users\billzhang\Desktop\I3C_XO5\sw_I3C_XO5\gpi_i3c_led\Debug/../src/bsp/driver/riscv_mc/crt0.S:119
  csrwi mie, 0
     204:	30405073          	csrwi	mie,0
C:\Users\billzhang\Desktop\I3C_XO5\sw_I3C_XO5\gpi_i3c_led\Debug/../src/bsp/driver/riscv_mc/crt0.S:123

  .option push
  .option norelax
  la gp, __global_pointer$
     208:	00002197          	auipc	gp,0x2
     20c:	40c18193          	addi	gp,gp,1036 # 2614 <__global_pointer$>
C:\Users\billzhang\Desktop\I3C_XO5\sw_I3C_XO5\gpi_i3c_led\Debug/../src/bsp/driver/riscv_mc/crt0.S:140
    add a0,a0,4
    j stack_loop
stack_done:
#endif

  la sp, _stack_start
     210:	56c18113          	addi	sp,gp,1388 # 2b80 <_stack_start>

00000214 <bss_init>:
bss_init():
C:\Users\billzhang\Desktop\I3C_XO5\sw_I3C_XO5\gpi_i3c_led\Debug/../src/bsp/driver/riscv_mc/crt0.S:143

bss_init:
  la a0, _bss_start
     214:	00002517          	auipc	a0,0x2
     218:	c0450513          	addi	a0,a0,-1020 # 1e18 <s_putc_func>
C:\Users\billzhang\Desktop\I3C_XO5\sw_I3C_XO5\gpi_i3c_led\Debug/../src/bsp/driver/riscv_mc/crt0.S:144
  la a1, _bss_end
     21c:	a6018593          	addi	a1,gp,-1440 # 2074 <_bss_end>

00000220 <bss_loop>:
bss_loop():
C:\Users\billzhang\Desktop\I3C_XO5\sw_I3C_XO5\gpi_i3c_led\Debug/../src/bsp/driver/riscv_mc/crt0.S:146
bss_loop:
  beq a0,a1,bss_done
     220:	00b50663          	beq	a0,a1,22c <bss_done>
C:\Users\billzhang\Desktop\I3C_XO5\sw_I3C_XO5\gpi_i3c_led\Debug/../src/bsp/driver/riscv_mc/crt0.S:147
  sw zero,0(a0)
     224:	00052023          	sw	zero,0(a0)
C:\Users\billzhang\Desktop\I3C_XO5\sw_I3C_XO5\gpi_i3c_led\Debug/../src/bsp/driver/riscv_mc/crt0.S:148
  add a0,a0,4
     228:	0511                	addi	a0,a0,4
C:\Users\billzhang\Desktop\I3C_XO5\sw_I3C_XO5\gpi_i3c_led\Debug/../src/bsp/driver/riscv_mc/crt0.S:149
  j bss_loop
     22a:	bfdd                	j	220 <bss_loop>

0000022c <bss_done>:
bss_done():
C:\Users\billzhang\Desktop\I3C_XO5\sw_I3C_XO5\gpi_i3c_led\Debug/../src/bsp/driver/riscv_mc/crt0.S:173
//  li a0, 0x880     //880 enable timer + external interrupts
//  csrw mie,a0
//  li a0, 0x1808     //1808 enable interrupts
//  csrw mstatus,a0

  call main
     22c:	6f9000ef          	jal	ra,1124 <main>
C:\Users\billzhang\Desktop\I3C_XO5\sw_I3C_XO5\gpi_i3c_led\Debug/../src/bsp/driver/riscv_mc/crt0.S:174
  call _exit
     230:	2029                	jal	23a <_exit>

00000232 <infinitLoop>:
infinitLoop():
C:\Users\billzhang\Desktop\I3C_XO5\sw_I3C_XO5\gpi_i3c_led\Debug/../src/bsp/driver/riscv_mc/crt0.S:176
infinitLoop:
  j infinitLoop
     232:	a001                	j	232 <infinitLoop>
C:\Users\billzhang\Desktop\I3C_XO5\sw_I3C_XO5\gpi_i3c_led\Debug/../src/bsp/driver/riscv_mc/crt0.S:179

irq_callback:
  ret
     234:	8082                	ret
C:\Users\billzhang\Desktop\I3C_XO5\sw_I3C_XO5\gpi_i3c_led\Debug/../src/bsp/driver/riscv_mc/crt0.S:182

esr_callback:
  j esr_callback
     236:	0d40006f          	j	30a <esr_callback>

0000023a <_exit>:
_exit():
C:\Users\billzhang\Desktop\I3C_XO5\sw_I3C_XO5\gpi_i3c_led\Debug/../src/bsp/driver/riscv_mc/exit.c:57
#include <stdio.h>
#include <sys/cdefs.h>

void __attribute__ ((weak, __noreturn__))
_exit (int status)
{
     23a:	1101                	addi	sp,sp,-32
     23c:	ce22                	sw	s0,28(sp)
     23e:	1000                	addi	s0,sp,32
     240:	fea42623          	sw	a0,-20(s0)
C:\Users\billzhang\Desktop\I3C_XO5\sw_I3C_XO5\gpi_i3c_led\Debug/../src/bsp/driver/riscv_mc/exit.c:59 (discriminator 1)
	(void) status;
	while(1);
     244:	a001                	j	244 <_exit+0xa>

00000246 <irq_callback>:
irq_callback():
C:\Users\billzhang\Desktop\I3C_XO5\sw_I3C_XO5\gpi_i3c_led\Debug/../src/bsp/driver/riscv_mc/interrupt.c:57
#include "interrupt.h"

extern struct interrupt_entry int_table[S_INT_NUM];

void irq_callback(unsigned int mcause)
{
     246:	7179                	addi	sp,sp,-48
     248:	d606                	sw	ra,44(sp)
     24a:	d422                	sw	s0,40(sp)
     24c:	1800                	addi	s0,sp,48
     24e:	fca42e23          	sw	a0,-36(s0)
C:\Users\billzhang\Desktop\I3C_XO5\sw_I3C_XO5\gpi_i3c_led\Debug/../src/bsp/driver/riscv_mc/interrupt.c:59

	if ((mcause & MCAUSE_VAL_MASK) == MCAUSE_VAL_MTIP) {
     252:	fdc42783          	lw	a5,-36(s0)
     256:	00f7f713          	andi	a4,a5,15
     25a:	479d                	li	a5,7
     25c:	02f71563          	bne	a4,a5,286 <irq_callback+0x40>
C:\Users\billzhang\Desktop\I3C_XO5\sw_I3C_XO5\gpi_i3c_led\Debug/../src/bsp/driver/riscv_mc/interrupt.c:60
		if (int_table[S_INT_TIMER].isr) {
     260:	6789                	lui	a5,0x2
     262:	e3078793          	addi	a5,a5,-464 # 1e30 <int_table>
     266:	0f87a783          	lw	a5,248(a5)
     26a:	cbd9                	beqz	a5,300 <irq_callback+0xba>
C:\Users\billzhang\Desktop\I3C_XO5\sw_I3C_XO5\gpi_i3c_led\Debug/../src/bsp/driver/riscv_mc/interrupt.c:61
			int_table[S_INT_TIMER].isr(int_table[S_INT_TIMER].
     26c:	6789                	lui	a5,0x2
     26e:	e3078793          	addi	a5,a5,-464 # 1e30 <int_table>
     272:	0f87a703          	lw	a4,248(a5)
     276:	6789                	lui	a5,0x2
     278:	e3078793          	addi	a5,a5,-464 # 1e30 <int_table>
     27c:	0fc7a783          	lw	a5,252(a5)
     280:	853e                	mv	a0,a5
     282:	9702                	jalr	a4
C:\Users\billzhang\Desktop\I3C_XO5\sw_I3C_XO5\gpi_i3c_led\Debug/../src/bsp/driver/riscv_mc/interrupt.c:76
				}
				pic_int_clear(idx);
			}
		}
	}
}
     284:	a8b5                	j	300 <irq_callback+0xba>
C:\Users\billzhang\Desktop\I3C_XO5\sw_I3C_XO5\gpi_i3c_led\Debug/../src/bsp/driver/riscv_mc/interrupt.c:64
	} else if ((mcause & MCAUSE_VAL_MASK) == MCASUE_VAL_MEIP) {
     286:	fdc42783          	lw	a5,-36(s0)
     28a:	00f7f713          	andi	a4,a5,15
     28e:	47ad                	li	a5,11
     290:	06f71863          	bne	a4,a5,300 <irq_callback+0xba>
C:\Users\billzhang\Desktop\I3C_XO5\sw_I3C_XO5\gpi_i3c_led\Debug/../src/bsp/driver/riscv_mc/interrupt.c:66
		for (idx = S_INT_PIC0; idx < S_INT_NUM; idx++) {
     294:	fe042623          	sw	zero,-20(s0)
     298:	a8b9                	j	2f6 <irq_callback+0xb0>
C:\Users\billzhang\Desktop\I3C_XO5\sw_I3C_XO5\gpi_i3c_led\Debug/../src/bsp/driver/riscv_mc/interrupt.c:67
			if (pic_int_pending(idx)) {
     29a:	fec42783          	lw	a5,-20(s0)
     29e:	0ff7f793          	zext.b	a5,a5
     2a2:	853e                	mv	a0,a5
     2a4:	225d                	jal	44a <pic_int_pending>
     2a6:	87aa                	mv	a5,a0
     2a8:	c3b1                	beqz	a5,2ec <irq_callback+0xa6>
C:\Users\billzhang\Desktop\I3C_XO5\sw_I3C_XO5\gpi_i3c_led\Debug/../src/bsp/driver/riscv_mc/interrupt.c:68
				if (int_table[idx].isr) {
     2aa:	6789                	lui	a5,0x2
     2ac:	e3078713          	addi	a4,a5,-464 # 1e30 <int_table>
     2b0:	fec42783          	lw	a5,-20(s0)
     2b4:	078e                	slli	a5,a5,0x3
     2b6:	97ba                	add	a5,a5,a4
     2b8:	439c                	lw	a5,0(a5)
     2ba:	c39d                	beqz	a5,2e0 <irq_callback+0x9a>
C:\Users\billzhang\Desktop\I3C_XO5\sw_I3C_XO5\gpi_i3c_led\Debug/../src/bsp/driver/riscv_mc/interrupt.c:69
					int_table[idx].isr(int_table[idx].
     2bc:	6789                	lui	a5,0x2
     2be:	e3078713          	addi	a4,a5,-464 # 1e30 <int_table>
     2c2:	fec42783          	lw	a5,-20(s0)
     2c6:	078e                	slli	a5,a5,0x3
     2c8:	97ba                	add	a5,a5,a4
     2ca:	4394                	lw	a3,0(a5)
     2cc:	6789                	lui	a5,0x2
     2ce:	e3078713          	addi	a4,a5,-464 # 1e30 <int_table>
     2d2:	fec42783          	lw	a5,-20(s0)
     2d6:	078e                	slli	a5,a5,0x3
     2d8:	97ba                	add	a5,a5,a4
     2da:	43dc                	lw	a5,4(a5)
     2dc:	853e                	mv	a0,a5
     2de:	9682                	jalr	a3
C:\Users\billzhang\Desktop\I3C_XO5\sw_I3C_XO5\gpi_i3c_led\Debug/../src/bsp/driver/riscv_mc/interrupt.c:72
				pic_int_clear(idx);
     2e0:	fec42783          	lw	a5,-20(s0)
     2e4:	0ff7f793          	zext.b	a5,a5
     2e8:	853e                	mv	a0,a5
     2ea:	2a25                	jal	422 <pic_int_clear>
C:\Users\billzhang\Desktop\I3C_XO5\sw_I3C_XO5\gpi_i3c_led\Debug/../src/bsp/driver/riscv_mc/interrupt.c:66 (discriminator 2)
		for (idx = S_INT_PIC0; idx < S_INT_NUM; idx++) {
     2ec:	fec42783          	lw	a5,-20(s0)
     2f0:	0785                	addi	a5,a5,1
     2f2:	fef42623          	sw	a5,-20(s0)
C:\Users\billzhang\Desktop\I3C_XO5\sw_I3C_XO5\gpi_i3c_led\Debug/../src/bsp/driver/riscv_mc/interrupt.c:66 (discriminator 1)
     2f6:	fec42703          	lw	a4,-20(s0)
     2fa:	47fd                	li	a5,31
     2fc:	f8e7dfe3          	bge	a5,a4,29a <irq_callback+0x54>
C:\Users\billzhang\Desktop\I3C_XO5\sw_I3C_XO5\gpi_i3c_led\Debug/../src/bsp/driver/riscv_mc/interrupt.c:76
}
     300:	0001                	nop
     302:	50b2                	lw	ra,44(sp)
     304:	5422                	lw	s0,40(sp)
     306:	6145                	addi	sp,sp,48
     308:	8082                	ret

0000030a <esr_callback>:
esr_callback():
C:\Users\billzhang\Desktop\I3C_XO5\sw_I3C_XO5\gpi_i3c_led\Debug/../src/bsp/driver/riscv_mc/interrupt.c:80

unsigned int esr_callback(unsigned int mcause, unsigned int mepc,
			  unsigned int sp)
{
     30a:	1101                	addi	sp,sp,-32
     30c:	ce06                	sw	ra,28(sp)
     30e:	cc22                	sw	s0,24(sp)
     310:	1000                	addi	s0,sp,32
     312:	fea42623          	sw	a0,-20(s0)
     316:	feb42423          	sw	a1,-24(s0)
     31a:	fec42223          	sw	a2,-28(s0)
C:\Users\billzhang\Desktop\I3C_XO5\sw_I3C_XO5\gpi_i3c_led\Debug/../src/bsp/driver/riscv_mc/interrupt.c:82

	printf("Exception caught: mcause=%d ,", mcause);
     31e:	fec42583          	lw	a1,-20(s0)
     322:	6789                	lui	a5,0x2
     324:	a3078513          	addi	a0,a5,-1488 # 1a30 <_etext>
     328:	136010ef          	jal	ra,145e <printf>
C:\Users\billzhang\Desktop\I3C_XO5\sw_I3C_XO5\gpi_i3c_led\Debug/../src/bsp/driver/riscv_mc/interrupt.c:83
	printf("mepc=%x, sp=%x \r\n", mepc, sp);
     32c:	fe442603          	lw	a2,-28(s0)
     330:	fe842583          	lw	a1,-24(s0)
     334:	6789                	lui	a5,0x2
     336:	a5078513          	addi	a0,a5,-1456 # 1a50 <_etext+0x20>
     33a:	124010ef          	jal	ra,145e <printf>
C:\Users\billzhang\Desktop\I3C_XO5\sw_I3C_XO5\gpi_i3c_led\Debug/../src/bsp/driver/riscv_mc/interrupt.c:107
		break;
	}

	printf("\r\n");
#endif
	return mepc + 4;
     33e:	fe842783          	lw	a5,-24(s0)
     342:	0791                	addi	a5,a5,4
C:\Users\billzhang\Desktop\I3C_XO5\sw_I3C_XO5\gpi_i3c_led\Debug/../src/bsp/driver/riscv_mc/interrupt.c:108
}
     344:	853e                	mv	a0,a5
     346:	40f2                	lw	ra,28(sp)
     348:	4462                	lw	s0,24(sp)
     34a:	6105                	addi	sp,sp,32
     34c:	8082                	ret

0000034e <iob_init>:
iob_init():
C:\Users\billzhang\Desktop\I3C_XO5\sw_I3C_XO5\gpi_i3c_led\Debug/../src/bsp/driver/riscv_mc/iob.c:63
static lscc_getc_func s_getc_func;
static lscc_flush_func s_flush_func;


void iob_init(lscc_putc_func putc_func, lscc_getc_func getc_func, lscc_flush_func flush_func)
{
     34e:	1101                	addi	sp,sp,-32
     350:	ce22                	sw	s0,28(sp)
     352:	1000                	addi	s0,sp,32
     354:	fea42623          	sw	a0,-20(s0)
     358:	feb42423          	sw	a1,-24(s0)
     35c:	fec42223          	sw	a2,-28(s0)
C:\Users\billzhang\Desktop\I3C_XO5\sw_I3C_XO5\gpi_i3c_led\Debug/../src/bsp/driver/riscv_mc/iob.c:64
	s_putc_func = putc_func;
     360:	6789                	lui	a5,0x2
     362:	fec42703          	lw	a4,-20(s0)
     366:	e0e7ac23          	sw	a4,-488(a5) # 1e18 <s_putc_func>
C:\Users\billzhang\Desktop\I3C_XO5\sw_I3C_XO5\gpi_i3c_led\Debug/../src/bsp/driver/riscv_mc/iob.c:65
	s_getc_func = getc_func;
     36a:	6789                	lui	a5,0x2
     36c:	fe842703          	lw	a4,-24(s0)
     370:	e0e7ae23          	sw	a4,-484(a5) # 1e1c <s_getc_func>
C:\Users\billzhang\Desktop\I3C_XO5\sw_I3C_XO5\gpi_i3c_led\Debug/../src/bsp/driver/riscv_mc/iob.c:66
	s_flush_func = flush_func;
     374:	6789                	lui	a5,0x2
     376:	fe442703          	lw	a4,-28(s0)
     37a:	e2e7a023          	sw	a4,-480(a5) # 1e20 <s_flush_func>
C:\Users\billzhang\Desktop\I3C_XO5\sw_I3C_XO5\gpi_i3c_led\Debug/../src/bsp/driver/riscv_mc/iob.c:67
}
     37e:	0001                	nop
     380:	4472                	lw	s0,28(sp)
     382:	6105                	addi	sp,sp,32
     384:	8082                	ret

00000386 <iob_putc>:
iob_putc():
C:\Users\billzhang\Desktop\I3C_XO5\sw_I3C_XO5\gpi_i3c_led\Debug/../src/bsp/driver/riscv_mc/iob.c:71


static int iob_putc(char c, FILE *file)
{
     386:	1101                	addi	sp,sp,-32
     388:	ce06                	sw	ra,28(sp)
     38a:	cc22                	sw	s0,24(sp)
     38c:	1000                	addi	s0,sp,32
     38e:	87aa                	mv	a5,a0
     390:	feb42423          	sw	a1,-24(s0)
     394:	fef407a3          	sb	a5,-17(s0)
C:\Users\billzhang\Desktop\I3C_XO5\sw_I3C_XO5\gpi_i3c_led\Debug/../src/bsp/driver/riscv_mc/iob.c:72
	return s_putc_func ? (*s_putc_func)(c, file) : EOF;
     398:	6789                	lui	a5,0x2
     39a:	e187a783          	lw	a5,-488(a5) # 1e18 <s_putc_func>
     39e:	cf81                	beqz	a5,3b6 <iob_putc+0x30>
C:\Users\billzhang\Desktop\I3C_XO5\sw_I3C_XO5\gpi_i3c_led\Debug/../src/bsp/driver/riscv_mc/iob.c:72 (discriminator 1)
     3a0:	6789                	lui	a5,0x2
     3a2:	e187a703          	lw	a4,-488(a5) # 1e18 <s_putc_func>
     3a6:	fef40783          	lb	a5,-17(s0)
     3aa:	fe842583          	lw	a1,-24(s0)
     3ae:	853e                	mv	a0,a5
     3b0:	9702                	jalr	a4
     3b2:	87aa                	mv	a5,a0
     3b4:	a011                	j	3b8 <iob_putc+0x32>
C:\Users\billzhang\Desktop\I3C_XO5\sw_I3C_XO5\gpi_i3c_led\Debug/../src/bsp/driver/riscv_mc/iob.c:72 (discriminator 2)
     3b6:	57fd                	li	a5,-1
C:\Users\billzhang\Desktop\I3C_XO5\sw_I3C_XO5\gpi_i3c_led\Debug/../src/bsp/driver/riscv_mc/iob.c:73 (discriminator 5)
}
     3b8:	853e                	mv	a0,a5
     3ba:	40f2                	lw	ra,28(sp)
     3bc:	4462                	lw	s0,24(sp)
     3be:	6105                	addi	sp,sp,32
     3c0:	8082                	ret

000003c2 <iob_getc>:
iob_getc():
C:\Users\billzhang\Desktop\I3C_XO5\sw_I3C_XO5\gpi_i3c_led\Debug/../src/bsp/driver/riscv_mc/iob.c:77


static int iob_getc(FILE *file)
{
     3c2:	1101                	addi	sp,sp,-32
     3c4:	ce06                	sw	ra,28(sp)
     3c6:	cc22                	sw	s0,24(sp)
     3c8:	1000                	addi	s0,sp,32
     3ca:	fea42623          	sw	a0,-20(s0)
C:\Users\billzhang\Desktop\I3C_XO5\sw_I3C_XO5\gpi_i3c_led\Debug/../src/bsp/driver/riscv_mc/iob.c:78
	return s_getc_func ? (*s_getc_func)(file) : EOF;
     3ce:	6789                	lui	a5,0x2
     3d0:	e1c7a783          	lw	a5,-484(a5) # 1e1c <s_getc_func>
     3d4:	cb89                	beqz	a5,3e6 <iob_getc+0x24>
C:\Users\billzhang\Desktop\I3C_XO5\sw_I3C_XO5\gpi_i3c_led\Debug/../src/bsp/driver/riscv_mc/iob.c:78 (discriminator 1)
     3d6:	6789                	lui	a5,0x2
     3d8:	e1c7a783          	lw	a5,-484(a5) # 1e1c <s_getc_func>
     3dc:	fec42503          	lw	a0,-20(s0)
     3e0:	9782                	jalr	a5
     3e2:	87aa                	mv	a5,a0
     3e4:	a011                	j	3e8 <iob_getc+0x26>
C:\Users\billzhang\Desktop\I3C_XO5\sw_I3C_XO5\gpi_i3c_led\Debug/../src/bsp/driver/riscv_mc/iob.c:78 (discriminator 2)
     3e6:	57fd                	li	a5,-1
C:\Users\billzhang\Desktop\I3C_XO5\sw_I3C_XO5\gpi_i3c_led\Debug/../src/bsp/driver/riscv_mc/iob.c:79 (discriminator 5)
}
     3e8:	853e                	mv	a0,a5
     3ea:	40f2                	lw	ra,28(sp)
     3ec:	4462                	lw	s0,24(sp)
     3ee:	6105                	addi	sp,sp,32
     3f0:	8082                	ret

000003f2 <iob_flush>:
iob_flush():
C:\Users\billzhang\Desktop\I3C_XO5\sw_I3C_XO5\gpi_i3c_led\Debug/../src/bsp/driver/riscv_mc/iob.c:83


static int iob_flush(FILE *file)
{
     3f2:	1101                	addi	sp,sp,-32
     3f4:	ce06                	sw	ra,28(sp)
     3f6:	cc22                	sw	s0,24(sp)
     3f8:	1000                	addi	s0,sp,32
     3fa:	fea42623          	sw	a0,-20(s0)
C:\Users\billzhang\Desktop\I3C_XO5\sw_I3C_XO5\gpi_i3c_led\Debug/../src/bsp/driver/riscv_mc/iob.c:84
	return s_flush_func ? (*s_flush_func)(file) : 0;
     3fe:	6789                	lui	a5,0x2
     400:	e207a783          	lw	a5,-480(a5) # 1e20 <s_flush_func>
     404:	cb89                	beqz	a5,416 <iob_flush+0x24>
C:\Users\billzhang\Desktop\I3C_XO5\sw_I3C_XO5\gpi_i3c_led\Debug/../src/bsp/driver/riscv_mc/iob.c:84 (discriminator 1)
     406:	6789                	lui	a5,0x2
     408:	e207a783          	lw	a5,-480(a5) # 1e20 <s_flush_func>
     40c:	fec42503          	lw	a0,-20(s0)
     410:	9782                	jalr	a5
     412:	87aa                	mv	a5,a0
     414:	a011                	j	418 <iob_flush+0x26>
C:\Users\billzhang\Desktop\I3C_XO5\sw_I3C_XO5\gpi_i3c_led\Debug/../src/bsp/driver/riscv_mc/iob.c:84 (discriminator 2)
     416:	4781                	li	a5,0
C:\Users\billzhang\Desktop\I3C_XO5\sw_I3C_XO5\gpi_i3c_led\Debug/../src/bsp/driver/riscv_mc/iob.c:85 (discriminator 5)
}
     418:	853e                	mv	a0,a5
     41a:	40f2                	lw	ra,28(sp)
     41c:	4462                	lw	s0,24(sp)
     41e:	6105                	addi	sp,sp,32
     420:	8082                	ret

00000422 <pic_int_clear>:
pic_int_clear():
C:\Users\billzhang\Desktop\I3C_XO5\sw_I3C_XO5\gpi_i3c_led\Debug/../src/bsp/driver/riscv_mc/pic.c:94
	pic_dev->pic_en &= (~(1 << src));
	return 0;
}

uint8_t pic_int_clear(uint8_t src)
{
     422:	1101                	addi	sp,sp,-32
     424:	ce22                	sw	s0,28(sp)
     426:	1000                	addi	s0,sp,32
     428:	87aa                	mv	a5,a0
     42a:	fef407a3          	sb	a5,-17(s0)
C:\Users\billzhang\Desktop\I3C_XO5\sw_I3C_XO5\gpi_i3c_led\Debug/../src/bsp/driver/riscv_mc/pic.c:95
	pic_dev->pic_status = 1 << (src);
     42e:	fef44783          	lbu	a5,-17(s0)
     432:	4705                	li	a4,1
     434:	00f71733          	sll	a4,a4,a5
     438:	6789                	lui	a5,0x2
     43a:	e247a783          	lw	a5,-476(a5) # 1e24 <pic_dev>
     43e:	c398                	sw	a4,0(a5)
C:\Users\billzhang\Desktop\I3C_XO5\sw_I3C_XO5\gpi_i3c_led\Debug/../src/bsp/driver/riscv_mc/pic.c:96
	return 0;
     440:	4781                	li	a5,0
C:\Users\billzhang\Desktop\I3C_XO5\sw_I3C_XO5\gpi_i3c_led\Debug/../src/bsp/driver/riscv_mc/pic.c:97
}
     442:	853e                	mv	a0,a5
     444:	4472                	lw	s0,28(sp)
     446:	6105                	addi	sp,sp,32
     448:	8082                	ret

0000044a <pic_int_pending>:
pic_int_pending():
C:\Users\billzhang\Desktop\I3C_XO5\sw_I3C_XO5\gpi_i3c_led\Debug/../src/bsp/driver/riscv_mc/pic.c:100

uint8_t pic_int_pending(uint8_t src)
{
     44a:	7179                	addi	sp,sp,-48
     44c:	d622                	sw	s0,44(sp)
     44e:	1800                	addi	s0,sp,48
     450:	87aa                	mv	a5,a0
     452:	fcf40fa3          	sb	a5,-33(s0)
C:\Users\billzhang\Desktop\I3C_XO5\sw_I3C_XO5\gpi_i3c_led\Debug/../src/bsp/driver/riscv_mc/pic.c:101
	uint32_t ifr = pic_dev->pic_status;
     456:	6789                	lui	a5,0x2
     458:	e247a783          	lw	a5,-476(a5) # 1e24 <pic_dev>
     45c:	439c                	lw	a5,0(a5)
     45e:	fef42623          	sw	a5,-20(s0)
C:\Users\billzhang\Desktop\I3C_XO5\sw_I3C_XO5\gpi_i3c_led\Debug/../src/bsp/driver/riscv_mc/pic.c:103

	if (ifr & (1 << src)) {
     462:	fdf44783          	lbu	a5,-33(s0)
     466:	4705                	li	a4,1
     468:	00f717b3          	sll	a5,a4,a5
     46c:	873e                	mv	a4,a5
     46e:	fec42783          	lw	a5,-20(s0)
     472:	8ff9                	and	a5,a5,a4
     474:	c399                	beqz	a5,47a <pic_int_pending+0x30>
C:\Users\billzhang\Desktop\I3C_XO5\sw_I3C_XO5\gpi_i3c_led\Debug/../src/bsp/driver/riscv_mc/pic.c:104
		return 1;
     476:	4785                	li	a5,1
     478:	a011                	j	47c <pic_int_pending+0x32>
C:\Users\billzhang\Desktop\I3C_XO5\sw_I3C_XO5\gpi_i3c_led\Debug/../src/bsp/driver/riscv_mc/pic.c:107
	}

	return 0;
     47a:	4781                	li	a5,0
C:\Users\billzhang\Desktop\I3C_XO5\sw_I3C_XO5\gpi_i3c_led\Debug/../src/bsp/driver/riscv_mc/pic.c:108
}
     47c:	853e                	mv	a0,a5
     47e:	5432                	lw	s0,44(sp)
     480:	6145                	addi	sp,sp,48
     482:	8082                	ret

00000484 <reg_32b_read>:
reg_32b_read():
C:\Users\billzhang\Desktop\I3C_XO5\sw_I3C_XO5\gpi_i3c_led\Debug/../src/bsp/driver/riscv_mc/reg_access.c:64
	return 0;
}

uint8_t reg_32b_read(uint32_t reg_addr,
			   uint32_t *reg_32b_value)
{
     484:	7179                	addi	sp,sp,-48
     486:	d622                	sw	s0,44(sp)
     488:	1800                	addi	s0,sp,48
     48a:	fca42e23          	sw	a0,-36(s0)
     48e:	fcb42c23          	sw	a1,-40(s0)
C:\Users\billzhang\Desktop\I3C_XO5\sw_I3C_XO5\gpi_i3c_led\Debug/../src/bsp/driver/riscv_mc/reg_access.c:65
	uint32_t volatile *reg_value = (void *) reg_addr;
     492:	fdc42783          	lw	a5,-36(s0)
     496:	fef42623          	sw	a5,-20(s0)
C:\Users\billzhang\Desktop\I3C_XO5\sw_I3C_XO5\gpi_i3c_led\Debug/../src/bsp/driver/riscv_mc/reg_access.c:66
	*reg_32b_value = *reg_value;
     49a:	fec42783          	lw	a5,-20(s0)
     49e:	4398                	lw	a4,0(a5)
     4a0:	fd842783          	lw	a5,-40(s0)
     4a4:	c398                	sw	a4,0(a5)
C:\Users\billzhang\Desktop\I3C_XO5\sw_I3C_XO5\gpi_i3c_led\Debug/../src/bsp/driver/riscv_mc/reg_access.c:68

	return 0;
     4a6:	4781                	li	a5,0
C:\Users\billzhang\Desktop\I3C_XO5\sw_I3C_XO5\gpi_i3c_led\Debug/../src/bsp/driver/riscv_mc/reg_access.c:69
}
     4a8:	853e                	mv	a0,a5
     4aa:	5432                	lw	s0,44(sp)
     4ac:	6145                	addi	sp,sp,48
     4ae:	8082                	ret

000004b0 <reg_32b_modify>:
reg_32b_modify():
C:\Users\billzhang\Desktop\I3C_XO5\sw_I3C_XO5\gpi_i3c_led\Debug/../src/bsp/driver/riscv_mc/reg_access.c:73

uint8_t reg_32b_modify(uint32_t reg_addr, uint32_t bits_mask,
			     uint32_t value)
{
     4b0:	7179                	addi	sp,sp,-48
     4b2:	d622                	sw	s0,44(sp)
     4b4:	1800                	addi	s0,sp,48
     4b6:	fca42e23          	sw	a0,-36(s0)
     4ba:	fcb42c23          	sw	a1,-40(s0)
     4be:	fcc42a23          	sw	a2,-44(s0)
C:\Users\billzhang\Desktop\I3C_XO5\sw_I3C_XO5\gpi_i3c_led\Debug/../src/bsp/driver/riscv_mc/reg_access.c:74
	uint32_t volatile *reg_value = (void *) reg_addr;
     4c2:	fdc42783          	lw	a5,-36(s0)
     4c6:	fef42623          	sw	a5,-20(s0)
C:\Users\billzhang\Desktop\I3C_XO5\sw_I3C_XO5\gpi_i3c_led\Debug/../src/bsp/driver/riscv_mc/reg_access.c:77

	//*reg_value = ((*reg_value) & ~bits_mask) | value;
	*reg_value = ((*reg_value) & (~bits_mask)) | (value & bits_mask);
     4ca:	fec42783          	lw	a5,-20(s0)
     4ce:	4398                	lw	a4,0(a5)
     4d0:	fd842783          	lw	a5,-40(s0)
     4d4:	fff7c793          	not	a5,a5
     4d8:	8f7d                	and	a4,a4,a5
     4da:	fd442683          	lw	a3,-44(s0)
     4de:	fd842783          	lw	a5,-40(s0)
     4e2:	8ff5                	and	a5,a5,a3
     4e4:	8f5d                	or	a4,a4,a5
     4e6:	fec42783          	lw	a5,-20(s0)
     4ea:	c398                	sw	a4,0(a5)
C:\Users\billzhang\Desktop\I3C_XO5\sw_I3C_XO5\gpi_i3c_led\Debug/../src/bsp/driver/riscv_mc/reg_access.c:78
	return 0;
     4ec:	4781                	li	a5,0
C:\Users\billzhang\Desktop\I3C_XO5\sw_I3C_XO5\gpi_i3c_led\Debug/../src/bsp/driver/riscv_mc/reg_access.c:79
}
     4ee:	853e                	mv	a0,a5
     4f0:	5432                	lw	s0,44(sp)
     4f2:	6145                	addi	sp,sp,48
     4f4:	8082                	ret

000004f6 <reg_8b_write>:
reg_8b_write():
C:\Users\billzhang\Desktop\I3C_XO5\sw_I3C_XO5\gpi_i3c_led\Debug/../src/bsp/driver/riscv_mc/reg_access.c:98
	*reg_16b_value = *reg_value;
	return 0;
}

uint8_t reg_8b_write(uint32_t reg_addr, uint8_t value)
{
     4f6:	7179                	addi	sp,sp,-48
     4f8:	d622                	sw	s0,44(sp)
     4fa:	1800                	addi	s0,sp,48
     4fc:	fca42e23          	sw	a0,-36(s0)
     500:	87ae                	mv	a5,a1
     502:	fcf40da3          	sb	a5,-37(s0)
C:\Users\billzhang\Desktop\I3C_XO5\sw_I3C_XO5\gpi_i3c_led\Debug/../src/bsp/driver/riscv_mc/reg_access.c:99
	uint8_t volatile *reg_value = (void *) reg_addr;
     506:	fdc42783          	lw	a5,-36(s0)
     50a:	fef42623          	sw	a5,-20(s0)
C:\Users\billzhang\Desktop\I3C_XO5\sw_I3C_XO5\gpi_i3c_led\Debug/../src/bsp/driver/riscv_mc/reg_access.c:101

	*reg_value = value;
     50e:	fec42783          	lw	a5,-20(s0)
     512:	fdb44703          	lbu	a4,-37(s0)
     516:	00e78023          	sb	a4,0(a5)
C:\Users\billzhang\Desktop\I3C_XO5\sw_I3C_XO5\gpi_i3c_led\Debug/../src/bsp/driver/riscv_mc/reg_access.c:102
	return 0;
     51a:	4781                	li	a5,0
C:\Users\billzhang\Desktop\I3C_XO5\sw_I3C_XO5\gpi_i3c_led\Debug/../src/bsp/driver/riscv_mc/reg_access.c:103
}
     51c:	853e                	mv	a0,a5
     51e:	5432                	lw	s0,44(sp)
     520:	6145                	addi	sp,sp,48
     522:	8082                	ret

00000524 <reg_8b_modify>:
reg_8b_modify():
C:\Users\billzhang\Desktop\I3C_XO5\sw_I3C_XO5\gpi_i3c_led\Debug/../src/bsp/driver/riscv_mc/reg_access.c:107

uint8_t reg_8b_modify(uint32_t reg_addr, uint8_t bits_mask,
			    uint8_t value)
{
     524:	7179                	addi	sp,sp,-48
     526:	d622                	sw	s0,44(sp)
     528:	1800                	addi	s0,sp,48
     52a:	fca42e23          	sw	a0,-36(s0)
     52e:	87ae                	mv	a5,a1
     530:	8732                	mv	a4,a2
     532:	fcf40da3          	sb	a5,-37(s0)
     536:	87ba                	mv	a5,a4
     538:	fcf40d23          	sb	a5,-38(s0)
C:\Users\billzhang\Desktop\I3C_XO5\sw_I3C_XO5\gpi_i3c_led\Debug/../src/bsp/driver/riscv_mc/reg_access.c:108
	uint8_t volatile *reg_value = (void *) reg_addr;
     53c:	fdc42783          	lw	a5,-36(s0)
     540:	fef42623          	sw	a5,-20(s0)
C:\Users\billzhang\Desktop\I3C_XO5\sw_I3C_XO5\gpi_i3c_led\Debug/../src/bsp/driver/riscv_mc/reg_access.c:110

	*reg_value = ((*reg_value) & (~bits_mask)) | (value & bits_mask);
     544:	fec42783          	lw	a5,-20(s0)
     548:	0007c783          	lbu	a5,0(a5)
     54c:	0ff7f793          	zext.b	a5,a5
     550:	01879713          	slli	a4,a5,0x18
     554:	8761                	srai	a4,a4,0x18
     556:	fdb40783          	lb	a5,-37(s0)
     55a:	fff7c793          	not	a5,a5
     55e:	07e2                	slli	a5,a5,0x18
     560:	87e1                	srai	a5,a5,0x18
     562:	8ff9                	and	a5,a5,a4
     564:	01879713          	slli	a4,a5,0x18
     568:	8761                	srai	a4,a4,0x18
     56a:	fda44683          	lbu	a3,-38(s0)
     56e:	fdb44783          	lbu	a5,-37(s0)
     572:	8ff5                	and	a5,a5,a3
     574:	0ff7f793          	zext.b	a5,a5
     578:	07e2                	slli	a5,a5,0x18
     57a:	87e1                	srai	a5,a5,0x18
     57c:	8fd9                	or	a5,a5,a4
     57e:	07e2                	slli	a5,a5,0x18
     580:	87e1                	srai	a5,a5,0x18
     582:	0ff7f713          	zext.b	a4,a5
     586:	fec42783          	lw	a5,-20(s0)
     58a:	00e78023          	sb	a4,0(a5)
C:\Users\billzhang\Desktop\I3C_XO5\sw_I3C_XO5\gpi_i3c_led\Debug/../src/bsp/driver/riscv_mc/reg_access.c:111
	return 0;
     58e:	4781                	li	a5,0
C:\Users\billzhang\Desktop\I3C_XO5\sw_I3C_XO5\gpi_i3c_led\Debug/../src/bsp/driver/riscv_mc/reg_access.c:112
}
     590:	853e                	mv	a0,a5
     592:	5432                	lw	s0,44(sp)
     594:	6145                	addi	sp,sp,48
     596:	8082                	ret

00000598 <reg_8b_read>:
reg_8b_read():
C:\Users\billzhang\Desktop\I3C_XO5\sw_I3C_XO5\gpi_i3c_led\Debug/../src/bsp/driver/riscv_mc/reg_access.c:116

uint8_t reg_8b_read(uint32_t reg_addr,
			  uint8_t *reg_8b_value)
{
     598:	7179                	addi	sp,sp,-48
     59a:	d622                	sw	s0,44(sp)
     59c:	1800                	addi	s0,sp,48
     59e:	fca42e23          	sw	a0,-36(s0)
     5a2:	fcb42c23          	sw	a1,-40(s0)
C:\Users\billzhang\Desktop\I3C_XO5\sw_I3C_XO5\gpi_i3c_led\Debug/../src/bsp/driver/riscv_mc/reg_access.c:117
	uint8_t volatile *reg_value = (void *) reg_addr;
     5a6:	fdc42783          	lw	a5,-36(s0)
     5aa:	fef42623          	sw	a5,-20(s0)
C:\Users\billzhang\Desktop\I3C_XO5\sw_I3C_XO5\gpi_i3c_led\Debug/../src/bsp/driver/riscv_mc/reg_access.c:118
	*reg_8b_value = *reg_value;
     5ae:	fec42783          	lw	a5,-20(s0)
     5b2:	0007c783          	lbu	a5,0(a5)
     5b6:	0ff7f713          	zext.b	a4,a5
     5ba:	fd842783          	lw	a5,-40(s0)
     5be:	00e78023          	sb	a4,0(a5)
C:\Users\billzhang\Desktop\I3C_XO5\sw_I3C_XO5\gpi_i3c_led\Debug/../src/bsp/driver/riscv_mc/reg_access.c:119
	return 0;
     5c2:	4781                	li	a5,0
C:\Users\billzhang\Desktop\I3C_XO5\sw_I3C_XO5\gpi_i3c_led\Debug/../src/bsp/driver/riscv_mc/reg_access.c:120
}
     5c4:	853e                	mv	a0,a5
     5c6:	5432                	lw	s0,44(sp)
     5c8:	6145                	addi	sp,sp,48
     5ca:	8082                	ret

000005cc <i3c_target_init>:
i3c_target_init():
C:\Users\billzhang\Desktop\I3C_XO5\sw_I3C_XO5\gpi_i3c_led\Debug/../src/bsp/driver/i3c_target/i3c_target.c:60
 *             base_addr :  This parameter specify the I3C target IP base address. *
 * @return     Success or Failure
 * @exmaple    i3c_target_init(handle)
 */
unsigned int  i3c_target_init(struct i3c_target_handle_t *handle)
{
     5cc:	7179                	addi	sp,sp,-48
     5ce:	d622                	sw	s0,44(sp)
     5d0:	1800                	addi	s0,sp,48
     5d2:	fca42e23          	sw	a0,-36(s0)
C:\Users\billzhang\Desktop\I3C_XO5\sw_I3C_XO5\gpi_i3c_led\Debug/../src/bsp/driver/i3c_target/i3c_target.c:62
	unsigned int status;
	if(handle->base_addr != ZERO)
     5d6:	fdc42783          	lw	a5,-36(s0)
     5da:	439c                	lw	a5,0(a5)
     5dc:	cfa1                	beqz	a5,634 <i3c_target_init+0x68>
C:\Users\billzhang\Desktop\I3C_XO5\sw_I3C_XO5\gpi_i3c_led\Debug/../src/bsp/driver/i3c_target/i3c_target.c:64
	{
		i3c_tgt_reg_type_t *target = (i3c_tgt_reg_type_t *) (handle->base_addr);
     5de:	fdc42783          	lw	a5,-36(s0)
     5e2:	439c                	lw	a5,0(a5)
     5e4:	fef42423          	sw	a5,-24(s0)
C:\Users\billzhang\Desktop\I3C_XO5\sw_I3C_XO5\gpi_i3c_led\Debug/../src/bsp/driver/i3c_target/i3c_target.c:65
		target->interrupt_1_en=INTERRUPT_ENABLE;             //  enable the interrupt 1
     5e8:	fe842783          	lw	a5,-24(s0)
     5ec:	0ff00713          	li	a4,255
     5f0:	0ce7a223          	sw	a4,196(a5)
C:\Users\billzhang\Desktop\I3C_XO5\sw_I3C_XO5\gpi_i3c_led\Debug/../src/bsp/driver/i3c_target/i3c_target.c:66
		target->interrupt_2_en=INTERRUPT_ENABLE;             //  enable the interrupt 2
     5f4:	fe842783          	lw	a5,-24(s0)
     5f8:	0ff00713          	li	a4,255
     5fc:	0ce7a823          	sw	a4,208(a5)
C:\Users\billzhang\Desktop\I3C_XO5\sw_I3C_XO5\gpi_i3c_led\Debug/../src/bsp/driver/i3c_target/i3c_target.c:67
		target->interrupt_3_en=INTERRUPT_ENABLE;             //  enable the interrupt 3
     600:	fe842783          	lw	a5,-24(s0)
     604:	0ff00713          	li	a4,255
     608:	0ce7ae23          	sw	a4,220(a5)
C:\Users\billzhang\Desktop\I3C_XO5\sw_I3C_XO5\gpi_i3c_led\Debug/../src/bsp/driver/i3c_target/i3c_target.c:68
		target->interrupt_4_en=INTERRUPT_ENABLE;             //  enable the interrupt 4
     60c:	fe842783          	lw	a5,-24(s0)
     610:	0ff00713          	li	a4,255
     614:	0ee7a423          	sw	a4,232(a5)
C:\Users\billzhang\Desktop\I3C_XO5\sw_I3C_XO5\gpi_i3c_led\Debug/../src/bsp/driver/i3c_target/i3c_target.c:69
		target->interrupt_5_en=INTERRUPT_ENABLE;             //  enable the interrupt 5
     618:	fe842783          	lw	a5,-24(s0)
     61c:	0ff00713          	li	a4,255
     620:	0ee7aa23          	sw	a4,244(a5)
C:\Users\billzhang\Desktop\I3C_XO5\sw_I3C_XO5\gpi_i3c_led\Debug/../src/bsp/driver/i3c_target/i3c_target.c:70
		target->controller_role_handoff=CLEAR;               //  ack secondary controller request
     624:	fe842783          	lw	a5,-24(s0)
     628:	1007a623          	sw	zero,268(a5)
C:\Users\billzhang\Desktop\I3C_XO5\sw_I3C_XO5\gpi_i3c_led\Debug/../src/bsp/driver/i3c_target/i3c_target.c:71
		status= SUCCESS;
     62c:	4785                	li	a5,1
     62e:	fef42623          	sw	a5,-20(s0)
     632:	a019                	j	638 <i3c_target_init+0x6c>
C:\Users\billzhang\Desktop\I3C_XO5\sw_I3C_XO5\gpi_i3c_led\Debug/../src/bsp/driver/i3c_target/i3c_target.c:75
	}
	else
	{
		status= FAILURE;
     634:	fe042623          	sw	zero,-20(s0)
C:\Users\billzhang\Desktop\I3C_XO5\sw_I3C_XO5\gpi_i3c_led\Debug/../src/bsp/driver/i3c_target/i3c_target.c:77
	}
	return status;
     638:	fec42783          	lw	a5,-20(s0)
C:\Users\billzhang\Desktop\I3C_XO5\sw_I3C_XO5\gpi_i3c_led\Debug/../src/bsp/driver/i3c_target/i3c_target.c:78
}
     63c:	853e                	mv	a0,a5
     63e:	5432                	lw	s0,44(sp)
     640:	6145                	addi	sp,sp,48
     642:	8082                	ret

00000644 <i3c_target_fifo_loopback_enable>:
i3c_target_fifo_loopback_enable():
C:\Users\billzhang\Desktop\I3C_XO5\sw_I3C_XO5\gpi_i3c_led\Debug/../src/bsp/driver/i3c_target/i3c_target.c:560
 *             base_addr :  This parameter specify the I3C target IP base address.
 * @return     Success or Failure
 * @exmaple :  i3c_fifo_loopback_enable(handle)
 */
unsigned int  i3c_target_fifo_loopback_enable(struct i3c_target_handle_t *handle)
{
     644:	7179                	addi	sp,sp,-48
     646:	d622                	sw	s0,44(sp)
     648:	1800                	addi	s0,sp,48
     64a:	fca42e23          	sw	a0,-36(s0)
C:\Users\billzhang\Desktop\I3C_XO5\sw_I3C_XO5\gpi_i3c_led\Debug/../src/bsp/driver/i3c_target/i3c_target.c:562
	unsigned int status;
	if(handle->base_addr != ZERO)
     64e:	fdc42783          	lw	a5,-36(s0)
     652:	439c                	lw	a5,0(a5)
     654:	cf99                	beqz	a5,672 <i3c_target_fifo_loopback_enable+0x2e>
C:\Users\billzhang\Desktop\I3C_XO5\sw_I3C_XO5\gpi_i3c_led\Debug/../src/bsp/driver/i3c_target/i3c_target.c:564
	{
		i3c_tgt_reg_type_t *target = (i3c_tgt_reg_type_t *) (handle->base_addr);
     656:	fdc42783          	lw	a5,-36(s0)
     65a:	439c                	lw	a5,0(a5)
     65c:	fef42423          	sw	a5,-24(s0)
C:\Users\billzhang\Desktop\I3C_XO5\sw_I3C_XO5\gpi_i3c_led\Debug/../src/bsp/driver/i3c_target/i3c_target.c:565
		target->target_response=FIFO_LOOPBACK_EN;
     660:	fe842783          	lw	a5,-24(s0)
     664:	4741                	li	a4,16
     666:	0ae7a223          	sw	a4,164(a5)
C:\Users\billzhang\Desktop\I3C_XO5\sw_I3C_XO5\gpi_i3c_led\Debug/../src/bsp/driver/i3c_target/i3c_target.c:566
		status =  SUCCESS;
     66a:	4785                	li	a5,1
     66c:	fef42623          	sw	a5,-20(s0)
     670:	a019                	j	676 <i3c_target_fifo_loopback_enable+0x32>
C:\Users\billzhang\Desktop\I3C_XO5\sw_I3C_XO5\gpi_i3c_led\Debug/../src/bsp/driver/i3c_target/i3c_target.c:570
	}
	else
	{
		status = FAILURE;
     672:	fe042623          	sw	zero,-20(s0)
C:\Users\billzhang\Desktop\I3C_XO5\sw_I3C_XO5\gpi_i3c_led\Debug/../src/bsp/driver/i3c_target/i3c_target.c:572
	}
	return status;
     676:	fec42783          	lw	a5,-20(s0)
C:\Users\billzhang\Desktop\I3C_XO5\sw_I3C_XO5\gpi_i3c_led\Debug/../src/bsp/driver/i3c_target/i3c_target.c:573
}
     67a:	853e                	mv	a0,a5
     67c:	5432                	lw	s0,44(sp)
     67e:	6145                	addi	sp,sp,48
     680:	8082                	ret

00000682 <i3c_master_init>:
i3c_master_init():
C:\Users\billzhang\Desktop\I3C_XO5\sw_I3C_XO5\gpi_i3c_led\Debug/../src/bsp/driver/i3c_controller/i3c_controller.c:72
 * @param : addr : controller addr
 * @param : slave_nums : slave number
 * @return : status for this function
 */
uint8_t i3c_master_init(struct i3c_master_instance *this_i3cm,uint32_t addr,uint8_t mode,uint8_t clk,uint8_t slave_nums)
{
     682:	7179                	addi	sp,sp,-48
     684:	d606                	sw	ra,44(sp)
     686:	d422                	sw	s0,40(sp)
     688:	1800                	addi	s0,sp,48
     68a:	fca42e23          	sw	a0,-36(s0)
     68e:	fcb42c23          	sw	a1,-40(s0)
     692:	87b2                	mv	a5,a2
     694:	fcf40ba3          	sb	a5,-41(s0)
     698:	87b6                	mv	a5,a3
     69a:	fcf40b23          	sb	a5,-42(s0)
     69e:	87ba                	mv	a5,a4
     6a0:	fcf40aa3          	sb	a5,-43(s0)
C:\Users\billzhang\Desktop\I3C_XO5\sw_I3C_XO5\gpi_i3c_led\Debug/../src/bsp/driver/i3c_controller/i3c_controller.c:76
	uint32_t clk_value;
	unsigned char reg_value;

	if (NULL == this_i3cm) {
     6a4:	fdc42783          	lw	a5,-36(s0)
     6a8:	e781                	bnez	a5,6b0 <i3c_master_init+0x2e>
C:\Users\billzhang\Desktop\I3C_XO5\sw_I3C_XO5\gpi_i3c_led\Debug/../src/bsp/driver/i3c_controller/i3c_controller.c:77
			return -1;
     6aa:	0ff00793          	li	a5,255
     6ae:	a07d                	j	75c <i3c_master_init+0xda>
C:\Users\billzhang\Desktop\I3C_XO5\sw_I3C_XO5\gpi_i3c_led\Debug/../src/bsp/driver/i3c_controller/i3c_controller.c:80
	}

	this_i3cm->base_addr = addr;
     6b0:	fdc42783          	lw	a5,-36(s0)
     6b4:	fd842703          	lw	a4,-40(s0)
     6b8:	c398                	sw	a4,0(a5)
C:\Users\billzhang\Desktop\I3C_XO5\sw_I3C_XO5\gpi_i3c_led\Debug/../src/bsp/driver/i3c_controller/i3c_controller.c:81
	this_i3cm->devs_nums = slave_nums;
     6ba:	fd544783          	lbu	a5,-43(s0)
     6be:	01079713          	slli	a4,a5,0x10
     6c2:	8341                	srli	a4,a4,0x10
     6c4:	fdc42783          	lw	a5,-36(s0)
     6c8:	00e79423          	sh	a4,8(a5)
C:\Users\billzhang\Desktop\I3C_XO5\sw_I3C_XO5\gpi_i3c_led\Debug/../src/bsp/driver/i3c_controller/i3c_controller.c:84

	/* Enable the I2C mode */
	reg_8b_modify(this_i3cm->base_addr | I3C_MASTER_CFG0, I2C_MODE_ALLOWED, I2C_MODE_ALLOWED);
     6cc:	fdc42783          	lw	a5,-36(s0)
     6d0:	439c                	lw	a5,0(a5)
     6d2:	0087e793          	ori	a5,a5,8
     6d6:	4621                	li	a2,8
     6d8:	45a1                	li	a1,8
     6da:	853e                	mv	a0,a5
     6dc:	35a1                	jal	524 <reg_8b_modify>
C:\Users\billzhang\Desktop\I3C_XO5\sw_I3C_XO5\gpi_i3c_led\Debug/../src/bsp/driver/i3c_controller/i3c_controller.c:87

#ifdef ENABLE_DAA_UID
	reg_8b_modify(this_i3cm->base_addr |
     6de:	fdc42783          	lw	a5,-36(s0)
     6e2:	439c                	lw	a5,0(a5)
     6e4:	0087e793          	ori	a5,a5,8
     6e8:	4609                	li	a2,2
     6ea:	4589                	li	a1,2
     6ec:	853e                	mv	a0,a5
     6ee:	3d1d                	jal	524 <reg_8b_modify>
C:\Users\billzhang\Desktop\I3C_XO5\sw_I3C_XO5\gpi_i3c_led\Debug/../src/bsp/driver/i3c_controller/i3c_controller.c:93
							I3C_MASTER_CFG0,
							EN_DAA_UID_IN_RXFIFO,
							EN_DAA_UID_IN_RXFIFO);
#endif

	reg_8b_write(this_i3cm->base_addr |
     6f0:	fdc42783          	lw	a5,-36(s0)
     6f4:	439c                	lw	a5,0(a5)
     6f6:	0887e793          	ori	a5,a5,136
     6fa:	45c1                	li	a1,16
     6fc:	853e                	mv	a0,a5
     6fe:	3be5                	jal	4f6 <reg_8b_write>
C:\Users\billzhang\Desktop\I3C_XO5\sw_I3C_XO5\gpi_i3c_led\Debug/../src/bsp/driver/i3c_controller/i3c_controller.c:97
							I3C_MASTER_INTR_ENABLE,
									0x10);//enable all interrupt

	reg_8b_write(this_i3cm->base_addr | I3C_MASTER_DA_ACK_REG, 0xff);	//[cw] Clear num_da_acked on initialization
     700:	fdc42783          	lw	a5,-36(s0)
     704:	439c                	lw	a5,0(a5)
     706:	0707e793          	ori	a5,a5,112
     70a:	0ff00593          	li	a1,255
     70e:	853e                	mv	a0,a5
     710:	33dd                	jal	4f6 <reg_8b_write>
C:\Users\billzhang\Desktop\I3C_XO5\sw_I3C_XO5\gpi_i3c_led\Debug/../src/bsp/driver/i3c_controller/i3c_controller.c:108
	 * then it is 9 to be written into the register.
	 */
	//reg_8b_write(this_i3cm->base_addr | I3C_MASTER_CLKPERIOD, 9); //10 is working (1.4 MHz)
	//reg_8b_write(this_i3cm->base_addr | I3C_MASTER_OPEN_DRAIN_TIMER, 0); // 1 is working value

	reg_8b_read(this_i3cm->base_addr | I3C_MASTER_CLKPERIOD, &reg_value);
     712:	fdc42783          	lw	a5,-36(s0)
     716:	439c                	lw	a5,0(a5)
     718:	0047e793          	ori	a5,a5,4
     71c:	fef40713          	addi	a4,s0,-17
     720:	85ba                	mv	a1,a4
     722:	853e                	mv	a0,a5
     724:	3d95                	jal	598 <reg_8b_read>
C:\Users\billzhang\Desktop\I3C_XO5\sw_I3C_XO5\gpi_i3c_led\Debug/../src/bsp/driver/i3c_controller/i3c_controller.c:109
	printf("Sys clk register: %d\n", reg_value);
     726:	fef44783          	lbu	a5,-17(s0)
     72a:	85be                	mv	a1,a5
     72c:	6789                	lui	a5,0x2
     72e:	a7078513          	addi	a0,a5,-1424 # 1a70 <__iob+0xc>
     732:	52d000ef          	jal	ra,145e <printf>
C:\Users\billzhang\Desktop\I3C_XO5\sw_I3C_XO5\gpi_i3c_led\Debug/../src/bsp/driver/i3c_controller/i3c_controller.c:111

	reg_8b_read(this_i3cm->base_addr | I3C_MASTER_OPEN_DRAIN_TIMER, &reg_value);
     736:	fdc42783          	lw	a5,-36(s0)
     73a:	439c                	lw	a5,0(a5)
     73c:	00c7e793          	ori	a5,a5,12
     740:	fef40713          	addi	a4,s0,-17
     744:	85ba                	mv	a1,a4
     746:	853e                	mv	a0,a5
     748:	3d81                	jal	598 <reg_8b_read>
C:\Users\billzhang\Desktop\I3C_XO5\sw_I3C_XO5\gpi_i3c_led\Debug/../src/bsp/driver/i3c_controller/i3c_controller.c:112
	printf("Open drain timer register: %d\n", reg_value);
     74a:	fef44783          	lbu	a5,-17(s0)
     74e:	85be                	mv	a1,a5
     750:	6789                	lui	a5,0x2
     752:	a8878513          	addi	a0,a5,-1400 # 1a88 <__iob+0x24>
     756:	509000ef          	jal	ra,145e <printf>
C:\Users\billzhang\Desktop\I3C_XO5\sw_I3C_XO5\gpi_i3c_led\Debug/../src/bsp/driver/i3c_controller/i3c_controller.c:114

	return 0;
     75a:	4781                	li	a5,0
C:\Users\billzhang\Desktop\I3C_XO5\sw_I3C_XO5\gpi_i3c_led\Debug/../src/bsp/driver/i3c_controller/i3c_controller.c:115 (discriminator 1)
}
     75c:	853e                	mv	a0,a5
     75e:	50b2                	lw	ra,44(sp)
     760:	5422                	lw	s0,40(sp)
     762:	6145                	addi	sp,sp,48
     764:	8082                	ret

00000766 <i3c_master_entdaa_config>:
i3c_master_entdaa_config():
C:\Users\billzhang\Desktop\I3C_XO5\sw_I3C_XO5\gpi_i3c_led\Debug/../src/bsp/driver/i3c_controller/i3c_controller.c:124
 * @param : slave_nums : slave number
 * @param : slave_addr : slave addr
 * @return : status for this function
 */
static uint8_t i3c_master_entdaa_config(struct i3c_master_instance *this_i3cm, uint8_t slave_nums, uint8_t slave_addr)
{
     766:	7179                	addi	sp,sp,-48
     768:	d606                	sw	ra,44(sp)
     76a:	d422                	sw	s0,40(sp)
     76c:	1800                	addi	s0,sp,48
     76e:	fca42e23          	sw	a0,-36(s0)
     772:	87ae                	mv	a5,a1
     774:	8732                	mv	a4,a2
     776:	fcf40da3          	sb	a5,-37(s0)
     77a:	87ba                	mv	a5,a4
     77c:	fcf40d23          	sb	a5,-38(s0)
C:\Users\billzhang\Desktop\I3C_XO5\sw_I3C_XO5\gpi_i3c_led\Debug/../src/bsp/driver/i3c_controller/i3c_controller.c:128
	uint32_t wr_length, rd_length;
	uint8_t control;

	if (NULL == this_i3cm) {
     780:	fdc42783          	lw	a5,-36(s0)
     784:	e781                	bnez	a5,78c <i3c_master_entdaa_config+0x26>
C:\Users\billzhang\Desktop\I3C_XO5\sw_I3C_XO5\gpi_i3c_led\Debug/../src/bsp/driver/i3c_controller/i3c_controller.c:129
			return -1;
     786:	0ff00793          	li	a5,255
     78a:	a861                	j	822 <i3c_master_entdaa_config+0xbc>
C:\Users\billzhang\Desktop\I3C_XO5\sw_I3C_XO5\gpi_i3c_led\Debug/../src/bsp/driver/i3c_controller/i3c_controller.c:132
	}

	control = CCC_IN_FRAME|STOP_IN_FRAME|START_OF_CCC;
     78c:	47b5                	li	a5,13
     78e:	fef405a3          	sb	a5,-21(s0)
C:\Users\billzhang\Desktop\I3C_XO5\sw_I3C_XO5\gpi_i3c_led\Debug/../src/bsp/driver/i3c_controller/i3c_controller.c:134

	reg_8b_write(this_i3cm->base_addr | I3C_MASTER_WRITE_FIFO,control);
     792:	fdc42783          	lw	a5,-36(s0)
     796:	439c                	lw	a5,0(a5)
     798:	0c07e793          	ori	a5,a5,192
     79c:	feb44703          	lbu	a4,-21(s0)
     7a0:	85ba                	mv	a1,a4
     7a2:	853e                	mv	a0,a5
     7a4:	3b89                	jal	4f6 <reg_8b_write>
C:\Users\billzhang\Desktop\I3C_XO5\sw_I3C_XO5\gpi_i3c_led\Debug/../src/bsp/driver/i3c_controller/i3c_controller.c:136

	reg_8b_write(this_i3cm->base_addr | I3C_MASTER_WRITE_FIFO,I3C_BROADCAST_ADDR); //broadcast
     7a6:	fdc42783          	lw	a5,-36(s0)
     7aa:	439c                	lw	a5,0(a5)
     7ac:	0c07e793          	ori	a5,a5,192
     7b0:	07e00593          	li	a1,126
     7b4:	853e                	mv	a0,a5
     7b6:	3381                	jal	4f6 <reg_8b_write>
C:\Users\billzhang\Desktop\I3C_XO5\sw_I3C_XO5\gpi_i3c_led\Debug/../src/bsp/driver/i3c_controller/i3c_controller.c:138

	reg_8b_write(this_i3cm->base_addr | I3C_MASTER_WRITE_FIFO,0x01 + slave_nums); //write length
     7b8:	fdc42783          	lw	a5,-36(s0)
     7bc:	439c                	lw	a5,0(a5)
     7be:	0c07e713          	ori	a4,a5,192
     7c2:	fdb44783          	lbu	a5,-37(s0)
     7c6:	0785                	addi	a5,a5,1
     7c8:	0ff7f793          	zext.b	a5,a5
     7cc:	85be                	mv	a1,a5
     7ce:	853a                	mv	a0,a4
     7d0:	331d                	jal	4f6 <reg_8b_write>
C:\Users\billzhang\Desktop\I3C_XO5\sw_I3C_XO5\gpi_i3c_led\Debug/../src/bsp/driver/i3c_controller/i3c_controller.c:140

	reg_8b_write(this_i3cm->base_addr | I3C_MASTER_WRITE_FIFO, I3C_CCC_ENTDAA); //ENTDAA CCC
     7d2:	fdc42783          	lw	a5,-36(s0)
     7d6:	439c                	lw	a5,0(a5)
     7d8:	0c07e793          	ori	a5,a5,192
     7dc:	459d                	li	a1,7
     7de:	853e                	mv	a0,a5
     7e0:	3b19                	jal	4f6 <reg_8b_write>
C:\Users\billzhang\Desktop\I3C_XO5\sw_I3C_XO5\gpi_i3c_led\Debug/../src/bsp/driver/i3c_controller/i3c_controller.c:142

	for(int i = 0; i<slave_nums; i++ ){
     7e2:	fe042623          	sw	zero,-20(s0)
     7e6:	a03d                	j	814 <i3c_master_entdaa_config+0xae>
C:\Users\billzhang\Desktop\I3C_XO5\sw_I3C_XO5\gpi_i3c_led\Debug/../src/bsp/driver/i3c_controller/i3c_controller.c:144 (discriminator 3)
		/* Shift the address to bits 7:1. Bit 0 is parity which is auto calculated by hardware */
		reg_8b_write(this_i3cm->base_addr | I3C_MASTER_WRITE_FIFO, slave_addr++ << 1);
     7e8:	fdc42783          	lw	a5,-36(s0)
     7ec:	439c                	lw	a5,0(a5)
     7ee:	0c07e693          	ori	a3,a5,192
     7f2:	fda44783          	lbu	a5,-38(s0)
     7f6:	00178713          	addi	a4,a5,1
     7fa:	fce40d23          	sb	a4,-38(s0)
     7fe:	0786                	slli	a5,a5,0x1
     800:	0ff7f793          	zext.b	a5,a5
     804:	85be                	mv	a1,a5
     806:	8536                	mv	a0,a3
     808:	31fd                	jal	4f6 <reg_8b_write>
C:\Users\billzhang\Desktop\I3C_XO5\sw_I3C_XO5\gpi_i3c_led\Debug/../src/bsp/driver/i3c_controller/i3c_controller.c:142 (discriminator 3)
	for(int i = 0; i<slave_nums; i++ ){
     80a:	fec42783          	lw	a5,-20(s0)
     80e:	0785                	addi	a5,a5,1
     810:	fef42623          	sw	a5,-20(s0)
C:\Users\billzhang\Desktop\I3C_XO5\sw_I3C_XO5\gpi_i3c_led\Debug/../src/bsp/driver/i3c_controller/i3c_controller.c:142 (discriminator 1)
     814:	fdb44783          	lbu	a5,-37(s0)
     818:	fec42703          	lw	a4,-20(s0)
     81c:	fcf746e3          	blt	a4,a5,7e8 <i3c_master_entdaa_config+0x82>
C:\Users\billzhang\Desktop\I3C_XO5\sw_I3C_XO5\gpi_i3c_led\Debug/../src/bsp/driver/i3c_controller/i3c_controller.c:147
	}

	return 0;
     820:	4781                	li	a5,0
C:\Users\billzhang\Desktop\I3C_XO5\sw_I3C_XO5\gpi_i3c_led\Debug/../src/bsp/driver/i3c_controller/i3c_controller.c:148
}
     822:	853e                	mv	a0,a5
     824:	50b2                	lw	ra,44(sp)
     826:	5422                	lw	s0,40(sp)
     828:	6145                	addi	sp,sp,48
     82a:	8082                	ret

0000082c <i3c_master_daa>:
i3c_master_daa():
C:\Users\billzhang\Desktop\I3C_XO5\sw_I3C_XO5\gpi_i3c_led\Debug/../src/bsp/driver/i3c_controller/i3c_controller.c:160
 * @param : device_count : device count
 * @param : slave_addr : slave addr
 * @return : status for this function
 */
uint8_t i3c_master_daa(struct i3c_master_instance *this_i3cm,struct i3c_dev_info *m,uint8_t *dyn_address,uint32_t device_count, uint8_t slave_addr)
{
     82c:	711d                	addi	sp,sp,-96
     82e:	ce86                	sw	ra,92(sp)
     830:	cca2                	sw	s0,88(sp)
     832:	caca                	sw	s2,84(sp)
     834:	c8ce                	sw	s3,80(sp)
     836:	1080                	addi	s0,sp,96
     838:	faa42e23          	sw	a0,-68(s0)
     83c:	fab42c23          	sw	a1,-72(s0)
     840:	fac42a23          	sw	a2,-76(s0)
     844:	fad42823          	sw	a3,-80(s0)
     848:	87ba                	mv	a5,a4
     84a:	faf407a3          	sb	a5,-81(s0)
C:\Users\billzhang\Desktop\I3C_XO5\sw_I3C_XO5\gpi_i3c_led\Debug/../src/bsp/driver/i3c_controller/i3c_controller.c:161
	int retry = 0;
     84e:	fe042623          	sw	zero,-20(s0)
C:\Users\billzhang\Desktop\I3C_XO5\sw_I3C_XO5\gpi_i3c_led\Debug/../src/bsp/driver/i3c_controller/i3c_controller.c:162
	uint64_t device_pid = 0, device_pid_shift = 0;
     852:	4781                	li	a5,0
     854:	4801                	li	a6,0
     856:	fef42023          	sw	a5,-32(s0)
     85a:	ff042223          	sw	a6,-28(s0)
     85e:	fcf42823          	sw	a5,-48(s0)
     862:	fd042a23          	sw	a6,-44(s0)
C:\Users\billzhang\Desktop\I3C_XO5\sw_I3C_XO5\gpi_i3c_led\Debug/../src/bsp/driver/i3c_controller/i3c_controller.c:166
	uint8_t device_bcr,device_dcr;
	unsigned char read_value;
	int count;
	int cnt=0;
     866:	fc042c23          	sw	zero,-40(s0)
C:\Users\billzhang\Desktop\I3C_XO5\sw_I3C_XO5\gpi_i3c_led\Debug/../src/bsp/driver/i3c_controller/i3c_controller.c:167
	uint32_t int_status = 0, num_da_acked = 0;
     86a:	fc042423          	sw	zero,-56(s0)
     86e:	fc042223          	sw	zero,-60(s0)
C:\Users\billzhang\Desktop\I3C_XO5\sw_I3C_XO5\gpi_i3c_led\Debug/../src/bsp/driver/i3c_controller/i3c_controller.c:169

	if (NULL == this_i3cm) {
     872:	fbc42783          	lw	a5,-68(s0)
     876:	e781                	bnez	a5,87e <i3c_master_daa+0x52>
C:\Users\billzhang\Desktop\I3C_XO5\sw_I3C_XO5\gpi_i3c_led\Debug/../src/bsp/driver/i3c_controller/i3c_controller.c:170
			return -1;
     878:	0ff00793          	li	a5,255
     87c:	aca9                	j	ad6 <_STACK_SIZE+0xd6>
C:\Users\billzhang\Desktop\I3C_XO5\sw_I3C_XO5\gpi_i3c_led\Debug/../src/bsp/driver/i3c_controller/i3c_controller.c:174
	}

	/* Slave address takes only 7-bit */
	if (slave_addr > 127) {
     87e:	faf40783          	lb	a5,-81(s0)
     882:	0007d563          	bgez	a5,88c <i3c_master_daa+0x60>
C:\Users\billzhang\Desktop\I3C_XO5\sw_I3C_XO5\gpi_i3c_led\Debug/../src/bsp/driver/i3c_controller/i3c_controller.c:175
		return -1;
     886:	0ff00793          	li	a5,255
     88a:	a4b1                	j	ad6 <_STACK_SIZE+0xd6>
C:\Users\billzhang\Desktop\I3C_XO5\sw_I3C_XO5\gpi_i3c_led\Debug/../src/bsp/driver/i3c_controller/i3c_controller.c:178
	}

	reg_8b_write(this_i3cm->base_addr | I3C_MASTER_DA_ACK_REG, MASK_CLEAR);	//[cw] Make sure num_da_acked cleared to 0
     88c:	fbc42783          	lw	a5,-68(s0)
     890:	439c                	lw	a5,0(a5)
     892:	0707e793          	ori	a5,a5,112
     896:	0ff00593          	li	a1,255
     89a:	853e                	mv	a0,a5
     89c:	39a9                	jal	4f6 <reg_8b_write>
C:\Users\billzhang\Desktop\I3C_XO5\sw_I3C_XO5\gpi_i3c_led\Debug/../src/bsp/driver/i3c_controller/i3c_controller.c:180

	reg_8b_write(this_i3cm->base_addr | I3C_MASTER_INTR_STA, I3C_INT0_DEFAULT_STATUS);
     89e:	fbc42783          	lw	a5,-68(s0)
     8a2:	439c                	lw	a5,0(a5)
     8a4:	0807e793          	ori	a5,a5,128
     8a8:	0c700593          	li	a1,199
     8ac:	853e                	mv	a0,a5
     8ae:	31a1                	jal	4f6 <reg_8b_write>
C:\Users\billzhang\Desktop\I3C_XO5\sw_I3C_XO5\gpi_i3c_led\Debug/../src/bsp/driver/i3c_controller/i3c_controller.c:182

	i3c_master_entdaa_config(this_i3cm, device_count, slave_addr);
     8b0:	fb042783          	lw	a5,-80(s0)
     8b4:	0ff7f793          	zext.b	a5,a5
     8b8:	faf44703          	lbu	a4,-81(s0)
     8bc:	863a                	mv	a2,a4
     8be:	85be                	mv	a1,a5
     8c0:	fbc42503          	lw	a0,-68(s0)
     8c4:	354d                	jal	766 <i3c_master_entdaa_config>
C:\Users\billzhang\Desktop\I3C_XO5\sw_I3C_XO5\gpi_i3c_led\Debug/../src/bsp/driver/i3c_controller/i3c_controller.c:184

	reg_8b_write(this_i3cm->base_addr | I3C_MASTER_START_REG, START);
     8c6:	fbc42783          	lw	a5,-68(s0)
     8ca:	439c                	lw	a5,0(a5)
     8cc:	0447e793          	ori	a5,a5,68
     8d0:	4585                	li	a1,1
     8d2:	853e                	mv	a0,a5
     8d4:	310d                	jal	4f6 <reg_8b_write>
C:\Users\billzhang\Desktop\I3C_XO5\sw_I3C_XO5\gpi_i3c_led\Debug/../src/bsp/driver/i3c_controller/i3c_controller.c:189

	/* delayMS is defined in utils.c which auto-generated when creating RISC-V MC
	 * software template
	 * */
	delayMS(1500);
     8d6:	5dc00513          	li	a0,1500
     8da:	369000ef          	jal	ra,1442 <delayMS>
C:\Users\billzhang\Desktop\I3C_XO5\sw_I3C_XO5\gpi_i3c_led\Debug/../src/bsp/driver/i3c_controller/i3c_controller.c:191

	while(retry < MAX_RETRY)
     8de:	aad9                	j	ab4 <_STACK_SIZE+0xb4>
C:\Users\billzhang\Desktop\I3C_XO5\sw_I3C_XO5\gpi_i3c_led\Debug/../src/bsp/driver/i3c_controller/i3c_controller.c:193
	{
		retry++;
     8e0:	fec42783          	lw	a5,-20(s0)
     8e4:	0785                	addi	a5,a5,1
     8e6:	fef42623          	sw	a5,-20(s0)
C:\Users\billzhang\Desktop\I3C_XO5\sw_I3C_XO5\gpi_i3c_led\Debug/../src/bsp/driver/i3c_controller/i3c_controller.c:194
		reg_8b_read(this_i3cm->base_addr | I3C_MASTER_INTR_STA, (uint8_t *)&int_status);
     8ea:	fbc42783          	lw	a5,-68(s0)
     8ee:	439c                	lw	a5,0(a5)
     8f0:	0807e793          	ori	a5,a5,128
     8f4:	fc840713          	addi	a4,s0,-56
     8f8:	85ba                	mv	a1,a4
     8fa:	853e                	mv	a0,a5
     8fc:	3971                	jal	598 <reg_8b_read>
C:\Users\billzhang\Desktop\I3C_XO5\sw_I3C_XO5\gpi_i3c_led\Debug/../src/bsp/driver/i3c_controller/i3c_controller.c:197
		DEBUG_PRINTF("i3c_master_daa() - int_status=0x%x\r\n",int_status);

		if(int_status & I3C_INT0_COMMAND_DONE)
     8fe:	fc842783          	lw	a5,-56(s0)
     902:	0407f793          	andi	a5,a5,64
     906:	1a078763          	beqz	a5,ab4 <_STACK_SIZE+0xb4>
C:\Users\billzhang\Desktop\I3C_XO5\sw_I3C_XO5\gpi_i3c_led\Debug/../src/bsp/driver/i3c_controller/i3c_controller.c:199
		{
			reg_8b_write(this_i3cm->base_addr | I3C_MASTER_INTR_STA,I3C_INT0_COMMAND_DONE);
     90a:	fbc42783          	lw	a5,-68(s0)
     90e:	439c                	lw	a5,0(a5)
     910:	0807e793          	ori	a5,a5,128
     914:	04000593          	li	a1,64
     918:	853e                	mv	a0,a5
     91a:	3ef1                	jal	4f6 <reg_8b_write>
C:\Users\billzhang\Desktop\I3C_XO5\sw_I3C_XO5\gpi_i3c_led\Debug/../src/bsp/driver/i3c_controller/i3c_controller.c:202
			DEBUG_PRINTF("i3c_master_daa() - I3C_INT0_COMMAND_DONE\r\n");

			if(int_status & I3C_INT0_SLAVE_NACK) // wait until all slaves ACK on DAA
     91c:	fc842783          	lw	a5,-56(s0)
     920:	0807f793          	andi	a5,a5,128
     924:	18078863          	beqz	a5,ab4 <_STACK_SIZE+0xb4>
C:\Users\billzhang\Desktop\I3C_XO5\sw_I3C_XO5\gpi_i3c_led\Debug/../src/bsp/driver/i3c_controller/i3c_controller.c:204
			{
				reg_8b_write(this_i3cm->base_addr | I3C_MASTER_INTR_STA, I3C_INT0_SLAVE_NACK);
     928:	fbc42783          	lw	a5,-68(s0)
     92c:	439c                	lw	a5,0(a5)
     92e:	0807e793          	ori	a5,a5,128
     932:	08000593          	li	a1,128
     936:	853e                	mv	a0,a5
     938:	3e7d                	jal	4f6 <reg_8b_write>
C:\Users\billzhang\Desktop\I3C_XO5\sw_I3C_XO5\gpi_i3c_led\Debug/../src/bsp/driver/i3c_controller/i3c_controller.c:207
				DEBUG_PRINTF("i3c_master_daa() - I3C_INT0_SLAVE_NACK\r\n");

				reg_8b_read(this_i3cm->base_addr | I3C_MASTER_DA_ACK_REG, (uint8_t *)&num_da_acked);
     93a:	fbc42783          	lw	a5,-68(s0)
     93e:	439c                	lw	a5,0(a5)
     940:	0707e793          	ori	a5,a5,112
     944:	fc440713          	addi	a4,s0,-60
     948:	85ba                	mv	a1,a4
     94a:	853e                	mv	a0,a5
     94c:	31b1                	jal	598 <reg_8b_read>
C:\Users\billzhang\Desktop\I3C_XO5\sw_I3C_XO5\gpi_i3c_led\Debug/../src/bsp/driver/i3c_controller/i3c_controller.c:210
				DEBUG_PRINTF("i3c_master_daa() - num_da_acked=%d\r\n", num_da_acked);

				if (num_da_acked)
     94e:	fc442783          	lw	a5,-60(s0)
     952:	14078f63          	beqz	a5,ab0 <_STACK_SIZE+0xb0>
C:\Users\billzhang\Desktop\I3C_XO5\sw_I3C_XO5\gpi_i3c_led\Debug/../src/bsp/driver/i3c_controller/i3c_controller.c:212
				{
					if(int_status & I3C_INT0_R_FIFO_n_EMPTY)
     956:	fc842783          	lw	a5,-56(s0)
     95a:	8b89                	andi	a5,a5,2
     95c:	16078363          	beqz	a5,ac2 <_STACK_SIZE+0xc2>
C:\Users\billzhang\Desktop\I3C_XO5\sw_I3C_XO5\gpi_i3c_led\Debug/../src/bsp/driver/i3c_controller/i3c_controller.c:214
					{
						reg_8b_write(this_i3cm->base_addr | I3C_MASTER_INTR_STA, I3C_INT0_R_FIFO_n_EMPTY);
     960:	fbc42783          	lw	a5,-68(s0)
     964:	439c                	lw	a5,0(a5)
     966:	0807e793          	ori	a5,a5,128
     96a:	4589                	li	a1,2
     96c:	853e                	mv	a0,a5
     96e:	3661                	jal	4f6 <reg_8b_write>
C:\Users\billzhang\Desktop\I3C_XO5\sw_I3C_XO5\gpi_i3c_led\Debug/../src/bsp/driver/i3c_controller/i3c_controller.c:216

						for(cnt=0;cnt<device_count;cnt++)//get info from readfifo
     970:	fc042c23          	sw	zero,-40(s0)
     974:	a23d                	j	aa2 <_STACK_SIZE+0xa2>
C:\Users\billzhang\Desktop\I3C_XO5\sw_I3C_XO5\gpi_i3c_led\Debug/../src/bsp/driver/i3c_controller/i3c_controller.c:218
						{
							for(count=5;count>=0;count--)
     976:	4795                	li	a5,5
     978:	fcf42e23          	sw	a5,-36(s0)
     97c:	a049                	j	9fe <i3c_master_daa+0x1d2>
C:\Users\billzhang\Desktop\I3C_XO5\sw_I3C_XO5\gpi_i3c_led\Debug/../src/bsp/driver/i3c_controller/i3c_controller.c:220 (discriminator 3)
							{
								reg_8b_read(this_i3cm->base_addr | I3C_MASTER_READ_FIFO, (uint8_t *)&read_value);
     97e:	fbc42783          	lw	a5,-68(s0)
     982:	439c                	lw	a5,0(a5)
     984:	1007e793          	ori	a5,a5,256
     988:	fcd40713          	addi	a4,s0,-51
     98c:	85ba                	mv	a1,a4
     98e:	853e                	mv	a0,a5
     990:	3121                	jal	598 <reg_8b_read>
C:\Users\billzhang\Desktop\I3C_XO5\sw_I3C_XO5\gpi_i3c_led\Debug/../src/bsp/driver/i3c_controller/i3c_controller.c:221 (discriminator 3)
								device_pid_shift = (uint64_t) read_value;
     992:	fcd44783          	lbu	a5,-51(s0)
     996:	fcf42823          	sw	a5,-48(s0)
     99a:	fc042a23          	sw	zero,-44(s0)
C:\Users\billzhang\Desktop\I3C_XO5\sw_I3C_XO5\gpi_i3c_led\Debug/../src/bsp/driver/i3c_controller/i3c_controller.c:222 (discriminator 3)
								device_pid = device_pid | (device_pid_shift << (8*count));
     99e:	fdc42783          	lw	a5,-36(s0)
     9a2:	078e                	slli	a5,a5,0x3
     9a4:	fe078713          	addi	a4,a5,-32
     9a8:	00074863          	bltz	a4,9b8 <i3c_master_daa+0x18c>
     9ac:	fd042783          	lw	a5,-48(s0)
     9b0:	00e799b3          	sll	s3,a5,a4
     9b4:	4901                	li	s2,0
     9b6:	a01d                	j	9dc <i3c_master_daa+0x1b0>
     9b8:	fd042703          	lw	a4,-48(s0)
     9bc:	00175693          	srli	a3,a4,0x1
     9c0:	477d                	li	a4,31
     9c2:	8f1d                	sub	a4,a4,a5
     9c4:	00e6d733          	srl	a4,a3,a4
     9c8:	fd442683          	lw	a3,-44(s0)
     9cc:	00f699b3          	sll	s3,a3,a5
     9d0:	013769b3          	or	s3,a4,s3
     9d4:	fd042703          	lw	a4,-48(s0)
     9d8:	00f71933          	sll	s2,a4,a5
     9dc:	fe042783          	lw	a5,-32(s0)
     9e0:	0127e7b3          	or	a5,a5,s2
     9e4:	fef42023          	sw	a5,-32(s0)
     9e8:	fe442783          	lw	a5,-28(s0)
     9ec:	0137e7b3          	or	a5,a5,s3
     9f0:	fef42223          	sw	a5,-28(s0)
C:\Users\billzhang\Desktop\I3C_XO5\sw_I3C_XO5\gpi_i3c_led\Debug/../src/bsp/driver/i3c_controller/i3c_controller.c:218 (discriminator 3)
							for(count=5;count>=0;count--)
     9f4:	fdc42783          	lw	a5,-36(s0)
     9f8:	17fd                	addi	a5,a5,-1
     9fa:	fcf42e23          	sw	a5,-36(s0)
C:\Users\billzhang\Desktop\I3C_XO5\sw_I3C_XO5\gpi_i3c_led\Debug/../src/bsp/driver/i3c_controller/i3c_controller.c:218 (discriminator 1)
     9fe:	fdc42783          	lw	a5,-36(s0)
     a02:	f607dee3          	bgez	a5,97e <i3c_master_daa+0x152>
C:\Users\billzhang\Desktop\I3C_XO5\sw_I3C_XO5\gpi_i3c_led\Debug/../src/bsp/driver/i3c_controller/i3c_controller.c:225 (discriminator 2)
							}

							reg_8b_read(this_i3cm->base_addr | I3C_MASTER_READ_FIFO,(uint8_t *)&read_value);
     a06:	fbc42783          	lw	a5,-68(s0)
     a0a:	439c                	lw	a5,0(a5)
     a0c:	1007e793          	ori	a5,a5,256
     a10:	fcd40713          	addi	a4,s0,-51
     a14:	85ba                	mv	a1,a4
     a16:	853e                	mv	a0,a5
     a18:	3641                	jal	598 <reg_8b_read>
C:\Users\billzhang\Desktop\I3C_XO5\sw_I3C_XO5\gpi_i3c_led\Debug/../src/bsp/driver/i3c_controller/i3c_controller.c:226 (discriminator 2)
							device_bcr=read_value;
     a1a:	fcd44783          	lbu	a5,-51(s0)
     a1e:	fcf407a3          	sb	a5,-49(s0)
C:\Users\billzhang\Desktop\I3C_XO5\sw_I3C_XO5\gpi_i3c_led\Debug/../src/bsp/driver/i3c_controller/i3c_controller.c:228 (discriminator 2)

							reg_8b_read(this_i3cm->base_addr | I3C_MASTER_READ_FIFO,(uint8_t *)&read_value);
     a22:	fbc42783          	lw	a5,-68(s0)
     a26:	439c                	lw	a5,0(a5)
     a28:	1007e793          	ori	a5,a5,256
     a2c:	fcd40713          	addi	a4,s0,-51
     a30:	85ba                	mv	a1,a4
     a32:	853e                	mv	a0,a5
     a34:	3695                	jal	598 <reg_8b_read>
C:\Users\billzhang\Desktop\I3C_XO5\sw_I3C_XO5\gpi_i3c_led\Debug/../src/bsp/driver/i3c_controller/i3c_controller.c:229 (discriminator 2)
							device_dcr=read_value;
     a36:	fcd44783          	lbu	a5,-51(s0)
     a3a:	fcf40723          	sb	a5,-50(s0)
C:\Users\billzhang\Desktop\I3C_XO5\sw_I3C_XO5\gpi_i3c_led\Debug/../src/bsp/driver/i3c_controller/i3c_controller.c:231 (discriminator 2)

							m[cnt].pid=device_pid;
     a3e:	fd842783          	lw	a5,-40(s0)
     a42:	0792                	slli	a5,a5,0x4
     a44:	fb842703          	lw	a4,-72(s0)
     a48:	00f706b3          	add	a3,a4,a5
     a4c:	fe042703          	lw	a4,-32(s0)
     a50:	fe442783          	lw	a5,-28(s0)
     a54:	c698                	sw	a4,8(a3)
     a56:	c6dc                	sw	a5,12(a3)
C:\Users\billzhang\Desktop\I3C_XO5\sw_I3C_XO5\gpi_i3c_led\Debug/../src/bsp/driver/i3c_controller/i3c_controller.c:232 (discriminator 2)
							m[cnt].bcr=device_bcr;
     a58:	fd842783          	lw	a5,-40(s0)
     a5c:	0792                	slli	a5,a5,0x4
     a5e:	fb842703          	lw	a4,-72(s0)
     a62:	97ba                	add	a5,a5,a4
     a64:	fcf44703          	lbu	a4,-49(s0)
     a68:	00e78123          	sb	a4,2(a5)
C:\Users\billzhang\Desktop\I3C_XO5\sw_I3C_XO5\gpi_i3c_led\Debug/../src/bsp/driver/i3c_controller/i3c_controller.c:233 (discriminator 2)
							m[cnt].dcr=device_dcr;
     a6c:	fd842783          	lw	a5,-40(s0)
     a70:	0792                	slli	a5,a5,0x4
     a72:	fb842703          	lw	a4,-72(s0)
     a76:	97ba                	add	a5,a5,a4
     a78:	fce44703          	lbu	a4,-50(s0)
     a7c:	00e781a3          	sb	a4,3(a5)
C:\Users\billzhang\Desktop\I3C_XO5\sw_I3C_XO5\gpi_i3c_led\Debug/../src/bsp/driver/i3c_controller/i3c_controller.c:234 (discriminator 2)
							m[cnt].init_dyn_addr=*dyn_address;
     a80:	fd842783          	lw	a5,-40(s0)
     a84:	0792                	slli	a5,a5,0x4
     a86:	fb842703          	lw	a4,-72(s0)
     a8a:	97ba                	add	a5,a5,a4
     a8c:	fb442703          	lw	a4,-76(s0)
     a90:	00074703          	lbu	a4,0(a4)
     a94:	00e78023          	sb	a4,0(a5)
C:\Users\billzhang\Desktop\I3C_XO5\sw_I3C_XO5\gpi_i3c_led\Debug/../src/bsp/driver/i3c_controller/i3c_controller.c:216 (discriminator 2)
						for(cnt=0;cnt<device_count;cnt++)//get info from readfifo
     a98:	fd842783          	lw	a5,-40(s0)
     a9c:	0785                	addi	a5,a5,1
     a9e:	fcf42c23          	sw	a5,-40(s0)
C:\Users\billzhang\Desktop\I3C_XO5\sw_I3C_XO5\gpi_i3c_led\Debug/../src/bsp/driver/i3c_controller/i3c_controller.c:216 (discriminator 1)
     aa2:	fd842783          	lw	a5,-40(s0)
     aa6:	fb042703          	lw	a4,-80(s0)
     aaa:	ece7e6e3          	bltu	a5,a4,976 <i3c_master_daa+0x14a>
C:\Users\billzhang\Desktop\I3C_XO5\sw_I3C_XO5\gpi_i3c_led\Debug/../src/bsp/driver/i3c_controller/i3c_controller.c:236
						}
						break;
     aae:	a819                	j	ac4 <_STACK_SIZE+0xc4>
C:\Users\billzhang\Desktop\I3C_XO5\sw_I3C_XO5\gpi_i3c_led\Debug/../src/bsp/driver/i3c_controller/i3c_controller.c:240
					}
					break;
				} else {
					return 1;
     ab0:	4785                	li	a5,1
     ab2:	a015                	j	ad6 <_STACK_SIZE+0xd6>
C:\Users\billzhang\Desktop\I3C_XO5\sw_I3C_XO5\gpi_i3c_led\Debug/../src/bsp/driver/i3c_controller/i3c_controller.c:191
	while(retry < MAX_RETRY)
     ab4:	fec42703          	lw	a4,-20(s0)
     ab8:	03100793          	li	a5,49
     abc:	e2e7d2e3          	bge	a5,a4,8e0 <i3c_master_daa+0xb4>
     ac0:	a011                	j	ac4 <_STACK_SIZE+0xc4>
C:\Users\billzhang\Desktop\I3C_XO5\sw_I3C_XO5\gpi_i3c_led\Debug/../src/bsp/driver/i3c_controller/i3c_controller.c:238
					break;
     ac2:	0001                	nop
C:\Users\billzhang\Desktop\I3C_XO5\sw_I3C_XO5\gpi_i3c_led\Debug/../src/bsp/driver/i3c_controller/i3c_controller.c:245
				}
			}
		}
	}
	if(retry < MAX_RETRY )
     ac4:	fec42703          	lw	a4,-20(s0)
     ac8:	03100793          	li	a5,49
     acc:	00e7c463          	blt	a5,a4,ad4 <_STACK_SIZE+0xd4>
C:\Users\billzhang\Desktop\I3C_XO5\sw_I3C_XO5\gpi_i3c_led\Debug/../src/bsp/driver/i3c_controller/i3c_controller.c:246
		return 0;
     ad0:	4781                	li	a5,0
     ad2:	a011                	j	ad6 <_STACK_SIZE+0xd6>
C:\Users\billzhang\Desktop\I3C_XO5\sw_I3C_XO5\gpi_i3c_led\Debug/../src/bsp/driver/i3c_controller/i3c_controller.c:248
	else
		return 1;
     ad4:	4785                	li	a5,1
C:\Users\billzhang\Desktop\I3C_XO5\sw_I3C_XO5\gpi_i3c_led\Debug/../src/bsp/driver/i3c_controller/i3c_controller.c:249 (discriminator 1)
}
     ad6:	853e                	mv	a0,a5
     ad8:	40f6                	lw	ra,92(sp)
     ada:	4466                	lw	s0,88(sp)
     adc:	4956                	lw	s2,84(sp)
     ade:	49c6                	lw	s3,80(sp)
     ae0:	6125                	addi	sp,sp,96
     ae2:	8082                	ret

00000ae4 <i3c_master_private_i3c_read>:
i3c_master_private_i3c_read():
C:\Users\billzhang\Desktop\I3C_XO5\sw_I3C_XO5\gpi_i3c_led\Debug/../src/bsp/driver/i3c_controller/i3c_controller.c:260
 * @param : rd_length : read length
 * @param : slave_dyn_addr : slave dynamic addr
 * @return : status for this function
 */
uint8_t i3c_master_private_i3c_read(struct i3c_master_instance *this_i3cm,uint8_t *rd_buf,uint8_t rd_length,uint8_t slave_dyn_addr)
{
     ae4:	7179                	addi	sp,sp,-48
     ae6:	d606                	sw	ra,44(sp)
     ae8:	d422                	sw	s0,40(sp)
     aea:	1800                	addi	s0,sp,48
     aec:	fca42e23          	sw	a0,-36(s0)
     af0:	fcb42c23          	sw	a1,-40(s0)
     af4:	87b2                	mv	a5,a2
     af6:	8736                	mv	a4,a3
     af8:	fcf40ba3          	sb	a5,-41(s0)
     afc:	87ba                	mv	a5,a4
     afe:	fcf40b23          	sb	a5,-42(s0)
C:\Users\billzhang\Desktop\I3C_XO5\sw_I3C_XO5\gpi_i3c_led\Debug/../src/bsp/driver/i3c_controller/i3c_controller.c:261
	uint8_t i=0;
     b02:	fe0407a3          	sb	zero,-17(s0)
C:\Users\billzhang\Desktop\I3C_XO5\sw_I3C_XO5\gpi_i3c_led\Debug/../src/bsp/driver/i3c_controller/i3c_controller.c:262
	uint32_t int_status=0;
     b06:	fe042423          	sw	zero,-24(s0)
C:\Users\billzhang\Desktop\I3C_XO5\sw_I3C_XO5\gpi_i3c_led\Debug/../src/bsp/driver/i3c_controller/i3c_controller.c:264

	if (NULL == this_i3cm) {
     b0a:	fdc42783          	lw	a5,-36(s0)
     b0e:	e781                	bnez	a5,b16 <i3c_master_private_i3c_read+0x32>
C:\Users\billzhang\Desktop\I3C_XO5\sw_I3C_XO5\gpi_i3c_led\Debug/../src/bsp/driver/i3c_controller/i3c_controller.c:265
			return -1;
     b10:	0ff00793          	li	a5,255
     b14:	a225                	j	c3c <i3c_master_private_i3c_read+0x158>
C:\Users\billzhang\Desktop\I3C_XO5\sw_I3C_XO5\gpi_i3c_led\Debug/../src/bsp/driver/i3c_controller/i3c_controller.c:268
	}

	reg_8b_write(this_i3cm->base_addr | I3C_MASTER_INTR_STA,I3C_INT0_DEFAULT_STATUS); //clear all pending bits
     b16:	fdc42783          	lw	a5,-36(s0)
     b1a:	439c                	lw	a5,0(a5)
     b1c:	0807e793          	ori	a5,a5,128
     b20:	0c700593          	li	a1,199
     b24:	853e                	mv	a0,a5
     b26:	3ac1                	jal	4f6 <reg_8b_write>
C:\Users\billzhang\Desktop\I3C_XO5\sw_I3C_XO5\gpi_i3c_led\Debug/../src/bsp/driver/i3c_controller/i3c_controller.c:271

//[cw]	reg_8b_write(this_i3cm->base_addr | I3C_MASTER_CFG0, 0); //ENTER I3C MODE
	reg_8b_write(this_i3cm->base_addr | I3C_MASTER_CFG0, I3C_PRIV_RW_NO_7E ); //[cw] ENTER I3C MODE with no broadcast
     b28:	fdc42783          	lw	a5,-36(s0)
     b2c:	439c                	lw	a5,0(a5)
     b2e:	0087e793          	ori	a5,a5,8
     b32:	4585                	li	a1,1
     b34:	853e                	mv	a0,a5
     b36:	32c1                	jal	4f6 <reg_8b_write>
C:\Users\billzhang\Desktop\I3C_XO5\sw_I3C_XO5\gpi_i3c_led\Debug/../src/bsp/driver/i3c_controller/i3c_controller.c:273

	reg_8b_write(this_i3cm->base_addr | I3C_MASTER_SOFT_RESET, RX_FIFO_RST ); //[cw] Reset RX FIFO
     b38:	fdc42783          	lw	a5,-36(s0)
     b3c:	439c                	lw	a5,0(a5)
     b3e:	0207e793          	ori	a5,a5,32
     b42:	4589                	li	a1,2
     b44:	853e                	mv	a0,a5
     b46:	3a45                	jal	4f6 <reg_8b_write>
C:\Users\billzhang\Desktop\I3C_XO5\sw_I3C_XO5\gpi_i3c_led\Debug/../src/bsp/driver/i3c_controller/i3c_controller.c:275

	reg_8b_write(this_i3cm->base_addr | I3C_MASTER_WRITE_FIFO,
     b48:	fdc42783          	lw	a5,-36(s0)
     b4c:	439c                	lw	a5,0(a5)
     b4e:	0c07e793          	ori	a5,a5,192
     b52:	4591                	li	a1,4
     b54:	853e                	mv	a0,a5
     b56:	3245                	jal	4f6 <reg_8b_write>
C:\Users\billzhang\Desktop\I3C_XO5\sw_I3C_XO5\gpi_i3c_led\Debug/../src/bsp/driver/i3c_controller/i3c_controller.c:278
										STOP_IN_FRAME);

	reg_8b_write(this_i3cm->base_addr | I3C_MASTER_WRITE_FIFO,
     b58:	fdc42783          	lw	a5,-36(s0)
     b5c:	439c                	lw	a5,0(a5)
     b5e:	0c07e713          	ori	a4,a5,192
C:\Users\billzhang\Desktop\I3C_XO5\sw_I3C_XO5\gpi_i3c_led\Debug/../src/bsp/driver/i3c_controller/i3c_controller.c:279
										(slave_dyn_addr << 1) | 0x1);
     b62:	fd644783          	lbu	a5,-42(s0)
     b66:	0786                	slli	a5,a5,0x1
     b68:	07e2                	slli	a5,a5,0x18
     b6a:	87e1                	srai	a5,a5,0x18
     b6c:	0017e793          	ori	a5,a5,1
     b70:	07e2                	slli	a5,a5,0x18
     b72:	87e1                	srai	a5,a5,0x18
C:\Users\billzhang\Desktop\I3C_XO5\sw_I3C_XO5\gpi_i3c_led\Debug/../src/bsp/driver/i3c_controller/i3c_controller.c:278
	reg_8b_write(this_i3cm->base_addr | I3C_MASTER_WRITE_FIFO,
     b74:	0ff7f793          	zext.b	a5,a5
     b78:	85be                	mv	a1,a5
     b7a:	853a                	mv	a0,a4
     b7c:	3aad                	jal	4f6 <reg_8b_write>
C:\Users\billzhang\Desktop\I3C_XO5\sw_I3C_XO5\gpi_i3c_led\Debug/../src/bsp/driver/i3c_controller/i3c_controller.c:281

	reg_8b_write(this_i3cm->base_addr | I3C_MASTER_WRITE_FIFO,
     b7e:	fdc42783          	lw	a5,-36(s0)
     b82:	439c                	lw	a5,0(a5)
     b84:	0c07e793          	ori	a5,a5,192
     b88:	fd744703          	lbu	a4,-41(s0)
     b8c:	85ba                	mv	a1,a4
     b8e:	853e                	mv	a0,a5
     b90:	329d                	jal	4f6 <reg_8b_write>
C:\Users\billzhang\Desktop\I3C_XO5\sw_I3C_XO5\gpi_i3c_led\Debug/../src/bsp/driver/i3c_controller/i3c_controller.c:284
										rd_length);

	reg_8b_write(this_i3cm->base_addr | I3C_MASTER_START_REG, START);
     b92:	fdc42783          	lw	a5,-36(s0)
     b96:	439c                	lw	a5,0(a5)
     b98:	0447e793          	ori	a5,a5,68
     b9c:	4585                	li	a1,1
     b9e:	853e                	mv	a0,a5
     ba0:	3a99                	jal	4f6 <reg_8b_write>
C:\Users\billzhang\Desktop\I3C_XO5\sw_I3C_XO5\gpi_i3c_led\Debug/../src/bsp/driver/i3c_controller/i3c_controller.c:286

	delayMS(1);
     ba2:	4505                	li	a0,1
     ba4:	09f000ef          	jal	ra,1442 <delayMS>
C:\Users\billzhang\Desktop\I3C_XO5\sw_I3C_XO5\gpi_i3c_led\Debug/../src/bsp/driver/i3c_controller/i3c_controller.c:290

	while(1)
	{
		reg_8b_read(this_i3cm->base_addr | I3C_MASTER_INTR_STA,(uint8_t *)&int_status);
     ba8:	fdc42783          	lw	a5,-36(s0)
     bac:	439c                	lw	a5,0(a5)
     bae:	0807e793          	ori	a5,a5,128
     bb2:	fe840713          	addi	a4,s0,-24
     bb6:	85ba                	mv	a1,a4
     bb8:	853e                	mv	a0,a5
     bba:	3af9                	jal	598 <reg_8b_read>
C:\Users\billzhang\Desktop\I3C_XO5\sw_I3C_XO5\gpi_i3c_led\Debug/../src/bsp/driver/i3c_controller/i3c_controller.c:292

		if(int_status & I3C_INT0_COMMAND_DONE)
     bbc:	fe842783          	lw	a5,-24(s0)
     bc0:	0407f793          	andi	a5,a5,64
     bc4:	d3f5                	beqz	a5,ba8 <i3c_master_private_i3c_read+0xc4>
C:\Users\billzhang\Desktop\I3C_XO5\sw_I3C_XO5\gpi_i3c_led\Debug/../src/bsp/driver/i3c_controller/i3c_controller.c:294
		{
			if(int_status & I3C_INT0_SLAVE_NACK)
     bc6:	fe842783          	lw	a5,-24(s0)
     bca:	0807f793          	andi	a5,a5,128
     bce:	cf81                	beqz	a5,be6 <i3c_master_private_i3c_read+0x102>
C:\Users\billzhang\Desktop\I3C_XO5\sw_I3C_XO5\gpi_i3c_led\Debug/../src/bsp/driver/i3c_controller/i3c_controller.c:296
			{
				reg_8b_write(this_i3cm->base_addr | I3C_MASTER_INTR_STA,I3C_INT0_DEFAULT_STATUS);
     bd0:	fdc42783          	lw	a5,-36(s0)
     bd4:	439c                	lw	a5,0(a5)
     bd6:	0807e793          	ori	a5,a5,128
     bda:	0c700593          	li	a1,199
     bde:	853e                	mv	a0,a5
     be0:	3a19                	jal	4f6 <reg_8b_write>
C:\Users\billzhang\Desktop\I3C_XO5\sw_I3C_XO5\gpi_i3c_led\Debug/../src/bsp/driver/i3c_controller/i3c_controller.c:297
				return 1;
     be2:	4785                	li	a5,1
     be4:	a8a1                	j	c3c <i3c_master_private_i3c_read+0x158>
C:\Users\billzhang\Desktop\I3C_XO5\sw_I3C_XO5\gpi_i3c_led\Debug/../src/bsp/driver/i3c_controller/i3c_controller.c:299
			}
			else if (int_status & I3C_INT0_RD_CMD_DONE)
     be6:	fe842783          	lw	a5,-24(s0)
     bea:	8b85                	andi	a5,a5,1
     bec:	dfd5                	beqz	a5,ba8 <i3c_master_private_i3c_read+0xc4>
C:\Users\billzhang\Desktop\I3C_XO5\sw_I3C_XO5\gpi_i3c_led\Debug/../src/bsp/driver/i3c_controller/i3c_controller.c:301
			{
				for(i=0; i<rd_length; i++)
     bee:	fe0407a3          	sb	zero,-17(s0)
     bf2:	a025                	j	c1a <i3c_master_private_i3c_read+0x136>
C:\Users\billzhang\Desktop\I3C_XO5\sw_I3C_XO5\gpi_i3c_led\Debug/../src/bsp/driver/i3c_controller/i3c_controller.c:303 (discriminator 3)
				{
					reg_8b_read(this_i3cm->base_addr | I3C_MASTER_READ_FIFO, (unsigned char*) rd_buf);
     bf4:	fdc42783          	lw	a5,-36(s0)
     bf8:	439c                	lw	a5,0(a5)
     bfa:	1007e793          	ori	a5,a5,256
     bfe:	fd842583          	lw	a1,-40(s0)
     c02:	853e                	mv	a0,a5
     c04:	3a51                	jal	598 <reg_8b_read>
C:\Users\billzhang\Desktop\I3C_XO5\sw_I3C_XO5\gpi_i3c_led\Debug/../src/bsp/driver/i3c_controller/i3c_controller.c:304 (discriminator 3)
					rd_buf++;
     c06:	fd842783          	lw	a5,-40(s0)
     c0a:	0785                	addi	a5,a5,1
     c0c:	fcf42c23          	sw	a5,-40(s0)
C:\Users\billzhang\Desktop\I3C_XO5\sw_I3C_XO5\gpi_i3c_led\Debug/../src/bsp/driver/i3c_controller/i3c_controller.c:301 (discriminator 3)
				for(i=0; i<rd_length; i++)
     c10:	fef44783          	lbu	a5,-17(s0)
     c14:	0785                	addi	a5,a5,1
     c16:	fef407a3          	sb	a5,-17(s0)
C:\Users\billzhang\Desktop\I3C_XO5\sw_I3C_XO5\gpi_i3c_led\Debug/../src/bsp/driver/i3c_controller/i3c_controller.c:301 (discriminator 1)
     c1a:	fef44703          	lbu	a4,-17(s0)
     c1e:	fd744783          	lbu	a5,-41(s0)
     c22:	fcf769e3          	bltu	a4,a5,bf4 <i3c_master_private_i3c_read+0x110>
C:\Users\billzhang\Desktop\I3C_XO5\sw_I3C_XO5\gpi_i3c_led\Debug/../src/bsp/driver/i3c_controller/i3c_controller.c:307
				}

				reg_8b_write(this_i3cm->base_addr | I3C_MASTER_INTR_STA,I3C_INT0_DEFAULT_STATUS);
     c26:	fdc42783          	lw	a5,-36(s0)
     c2a:	439c                	lw	a5,0(a5)
     c2c:	0807e793          	ori	a5,a5,128
     c30:	0c700593          	li	a1,199
     c34:	853e                	mv	a0,a5
     c36:	8c1ff0ef          	jal	ra,4f6 <reg_8b_write>
C:\Users\billzhang\Desktop\I3C_XO5\sw_I3C_XO5\gpi_i3c_led\Debug/../src/bsp/driver/i3c_controller/i3c_controller.c:308
				return 0;
     c3a:	4781                	li	a5,0
C:\Users\billzhang\Desktop\I3C_XO5\sw_I3C_XO5\gpi_i3c_led\Debug/../src/bsp/driver/i3c_controller/i3c_controller.c:312 (discriminator 1)
			}
		}
	}
}
     c3c:	853e                	mv	a0,a5
     c3e:	50b2                	lw	ra,44(sp)
     c40:	5422                	lw	s0,40(sp)
     c42:	6145                	addi	sp,sp,48
     c44:	8082                	ret

00000c46 <i3c_master_private_i3c_write>:
i3c_master_private_i3c_write():
C:\Users\billzhang\Desktop\I3C_XO5\sw_I3C_XO5\gpi_i3c_led\Debug/../src/bsp/driver/i3c_controller/i3c_controller.c:323
 * @param : wr_length : write length
 * @param : slave_dyn_addr : slave dynamic addr
 * @return : status for this function
 */
uint8_t i3c_master_private_i3c_write(struct i3c_master_instance *this_i3cm,uint8_t *wr_buf,uint8_t wr_length,uint8_t slave_dyn_addr)
{
     c46:	7179                	addi	sp,sp,-48
     c48:	d606                	sw	ra,44(sp)
     c4a:	d422                	sw	s0,40(sp)
     c4c:	1800                	addi	s0,sp,48
     c4e:	fca42e23          	sw	a0,-36(s0)
     c52:	fcb42c23          	sw	a1,-40(s0)
     c56:	87b2                	mv	a5,a2
     c58:	8736                	mv	a4,a3
     c5a:	fcf40ba3          	sb	a5,-41(s0)
     c5e:	87ba                	mv	a5,a4
     c60:	fcf40b23          	sb	a5,-42(s0)
C:\Users\billzhang\Desktop\I3C_XO5\sw_I3C_XO5\gpi_i3c_led\Debug/../src/bsp/driver/i3c_controller/i3c_controller.c:324
	uint8_t count=0;
     c64:	fe040723          	sb	zero,-18(s0)
C:\Users\billzhang\Desktop\I3C_XO5\sw_I3C_XO5\gpi_i3c_led\Debug/../src/bsp/driver/i3c_controller/i3c_controller.c:325
	uint32_t int_status=0;
     c68:	fe042423          	sw	zero,-24(s0)
C:\Users\billzhang\Desktop\I3C_XO5\sw_I3C_XO5\gpi_i3c_led\Debug/../src/bsp/driver/i3c_controller/i3c_controller.c:327

	if (NULL == this_i3cm) {
     c6c:	fdc42783          	lw	a5,-36(s0)
     c70:	e781                	bnez	a5,c78 <i3c_master_private_i3c_write+0x32>
C:\Users\billzhang\Desktop\I3C_XO5\sw_I3C_XO5\gpi_i3c_led\Debug/../src/bsp/driver/i3c_controller/i3c_controller.c:328
			return -1;
     c72:	0ff00793          	li	a5,255
     c76:	a8fd                	j	d74 <i3c_master_private_i3c_write+0x12e>
C:\Users\billzhang\Desktop\I3C_XO5\sw_I3C_XO5\gpi_i3c_led\Debug/../src/bsp/driver/i3c_controller/i3c_controller.c:331
	}

	reg_8b_write(this_i3cm->base_addr | I3C_MASTER_INTR_STA, I3C_INT0_DEFAULT_STATUS); //clear all pending bits
     c78:	fdc42783          	lw	a5,-36(s0)
     c7c:	439c                	lw	a5,0(a5)
     c7e:	0807e793          	ori	a5,a5,128
     c82:	0c700593          	li	a1,199
     c86:	853e                	mv	a0,a5
     c88:	86fff0ef          	jal	ra,4f6 <reg_8b_write>
C:\Users\billzhang\Desktop\I3C_XO5\sw_I3C_XO5\gpi_i3c_led\Debug/../src/bsp/driver/i3c_controller/i3c_controller.c:334

//[cw]	reg_8b_write(this_i3cm->base_addr | I3C_MASTER_CFG0, 0); //ENTER I3C MODE
	reg_8b_write(this_i3cm->base_addr | I3C_MASTER_CFG0, I3C_PRIV_RW_NO_7E ); //[cw] ENTER I3C MODE with no broadcast
     c8c:	fdc42783          	lw	a5,-36(s0)
     c90:	439c                	lw	a5,0(a5)
     c92:	0087e793          	ori	a5,a5,8
     c96:	4585                	li	a1,1
     c98:	853e                	mv	a0,a5
     c9a:	85dff0ef          	jal	ra,4f6 <reg_8b_write>
C:\Users\billzhang\Desktop\I3C_XO5\sw_I3C_XO5\gpi_i3c_led\Debug/../src/bsp/driver/i3c_controller/i3c_controller.c:336

	reg_8b_write(this_i3cm->base_addr | I3C_MASTER_WRITE_FIFO,
     c9e:	fdc42783          	lw	a5,-36(s0)
     ca2:	439c                	lw	a5,0(a5)
     ca4:	0c07e793          	ori	a5,a5,192
     ca8:	4591                	li	a1,4
     caa:	853e                	mv	a0,a5
     cac:	84bff0ef          	jal	ra,4f6 <reg_8b_write>
C:\Users\billzhang\Desktop\I3C_XO5\sw_I3C_XO5\gpi_i3c_led\Debug/../src/bsp/driver/i3c_controller/i3c_controller.c:338
											STOP_IN_FRAME);
	reg_8b_write(this_i3cm->base_addr | I3C_MASTER_WRITE_FIFO,
     cb0:	fdc42783          	lw	a5,-36(s0)
     cb4:	439c                	lw	a5,0(a5)
     cb6:	0c07e713          	ori	a4,a5,192
     cba:	fd644783          	lbu	a5,-42(s0)
     cbe:	0786                	slli	a5,a5,0x1
     cc0:	0ff7f793          	zext.b	a5,a5
     cc4:	85be                	mv	a1,a5
     cc6:	853a                	mv	a0,a4
     cc8:	82fff0ef          	jal	ra,4f6 <reg_8b_write>
C:\Users\billzhang\Desktop\I3C_XO5\sw_I3C_XO5\gpi_i3c_led\Debug/../src/bsp/driver/i3c_controller/i3c_controller.c:340
											slave_dyn_addr << 1);
	reg_8b_write(this_i3cm->base_addr | I3C_MASTER_WRITE_FIFO,
     ccc:	fdc42783          	lw	a5,-36(s0)
     cd0:	439c                	lw	a5,0(a5)
     cd2:	0c07e793          	ori	a5,a5,192
     cd6:	fd744703          	lbu	a4,-41(s0)
     cda:	85ba                	mv	a1,a4
     cdc:	853e                	mv	a0,a5
     cde:	819ff0ef          	jal	ra,4f6 <reg_8b_write>
C:\Users\billzhang\Desktop\I3C_XO5\sw_I3C_XO5\gpi_i3c_led\Debug/../src/bsp/driver/i3c_controller/i3c_controller.c:343
											wr_length);

	for(uint8_t i=0;i<wr_length;i++)
     ce2:	fe0407a3          	sb	zero,-17(s0)
     ce6:	a035                	j	d12 <i3c_master_private_i3c_write+0xcc>
C:\Users\billzhang\Desktop\I3C_XO5\sw_I3C_XO5\gpi_i3c_led\Debug/../src/bsp/driver/i3c_controller/i3c_controller.c:345 (discriminator 3)
	{
		reg_8b_write(this_i3cm->base_addr | I3C_MASTER_WRITE_FIFO, wr_buf[i]);
     ce8:	fdc42783          	lw	a5,-36(s0)
     cec:	439c                	lw	a5,0(a5)
     cee:	0c07e693          	ori	a3,a5,192
     cf2:	fef44783          	lbu	a5,-17(s0)
     cf6:	fd842703          	lw	a4,-40(s0)
     cfa:	97ba                	add	a5,a5,a4
     cfc:	0007c783          	lbu	a5,0(a5)
     d00:	85be                	mv	a1,a5
     d02:	8536                	mv	a0,a3
     d04:	ff2ff0ef          	jal	ra,4f6 <reg_8b_write>
C:\Users\billzhang\Desktop\I3C_XO5\sw_I3C_XO5\gpi_i3c_led\Debug/../src/bsp/driver/i3c_controller/i3c_controller.c:343 (discriminator 3)
	for(uint8_t i=0;i<wr_length;i++)
     d08:	fef44783          	lbu	a5,-17(s0)
     d0c:	0785                	addi	a5,a5,1
     d0e:	fef407a3          	sb	a5,-17(s0)
C:\Users\billzhang\Desktop\I3C_XO5\sw_I3C_XO5\gpi_i3c_led\Debug/../src/bsp/driver/i3c_controller/i3c_controller.c:343 (discriminator 1)
     d12:	fef44703          	lbu	a4,-17(s0)
     d16:	fd744783          	lbu	a5,-41(s0)
     d1a:	fcf767e3          	bltu	a4,a5,ce8 <i3c_master_private_i3c_write+0xa2>
C:\Users\billzhang\Desktop\I3C_XO5\sw_I3C_XO5\gpi_i3c_led\Debug/../src/bsp/driver/i3c_controller/i3c_controller.c:348
	}

	reg_8b_write(this_i3cm->base_addr | I3C_MASTER_START_REG, START);
     d1e:	fdc42783          	lw	a5,-36(s0)
     d22:	439c                	lw	a5,0(a5)
     d24:	0447e793          	ori	a5,a5,68
     d28:	4585                	li	a1,1
     d2a:	853e                	mv	a0,a5
     d2c:	fcaff0ef          	jal	ra,4f6 <reg_8b_write>
C:\Users\billzhang\Desktop\I3C_XO5\sw_I3C_XO5\gpi_i3c_led\Debug/../src/bsp/driver/i3c_controller/i3c_controller.c:354

	// delayMS(1);

	while(1)
	{
		reg_8b_read(this_i3cm->base_addr | I3C_MASTER_INTR_STA, (uint8_t *)&int_status);
     d30:	fdc42783          	lw	a5,-36(s0)
     d34:	439c                	lw	a5,0(a5)
     d36:	0807e793          	ori	a5,a5,128
     d3a:	fe840713          	addi	a4,s0,-24
     d3e:	85ba                	mv	a1,a4
     d40:	853e                	mv	a0,a5
     d42:	857ff0ef          	jal	ra,598 <reg_8b_read>
C:\Users\billzhang\Desktop\I3C_XO5\sw_I3C_XO5\gpi_i3c_led\Debug/../src/bsp/driver/i3c_controller/i3c_controller.c:356
		DEBUG_PRINTF("\r\nI3C0: Write command done int=0x(%x).",int_status);
		if (int_status & I3C_INT0_COMMAND_DONE) //wait cmd done
     d46:	fe842783          	lw	a5,-24(s0)
     d4a:	0407f793          	andi	a5,a5,64
     d4e:	d3ed                	beqz	a5,d30 <i3c_master_private_i3c_write+0xea>
C:\Users\billzhang\Desktop\I3C_XO5\sw_I3C_XO5\gpi_i3c_led\Debug/../src/bsp/driver/i3c_controller/i3c_controller.c:358
		{
			reg_8b_write(this_i3cm->base_addr | I3C_MASTER_INTR_STA,I3C_INT0_DEFAULT_STATUS);
     d50:	fdc42783          	lw	a5,-36(s0)
     d54:	439c                	lw	a5,0(a5)
     d56:	0807e793          	ori	a5,a5,128
     d5a:	0c700593          	li	a1,199
     d5e:	853e                	mv	a0,a5
     d60:	f96ff0ef          	jal	ra,4f6 <reg_8b_write>
C:\Users\billzhang\Desktop\I3C_XO5\sw_I3C_XO5\gpi_i3c_led\Debug/../src/bsp/driver/i3c_controller/i3c_controller.c:360

			if(int_status & I3C_INT0_SLAVE_NACK)
     d64:	fe842783          	lw	a5,-24(s0)
     d68:	0807f793          	andi	a5,a5,128
     d6c:	c399                	beqz	a5,d72 <i3c_master_private_i3c_write+0x12c>
C:\Users\billzhang\Desktop\I3C_XO5\sw_I3C_XO5\gpi_i3c_led\Debug/../src/bsp/driver/i3c_controller/i3c_controller.c:362
			{
				return 1;
     d6e:	4785                	li	a5,1
     d70:	a011                	j	d74 <i3c_master_private_i3c_write+0x12e>
C:\Users\billzhang\Desktop\I3C_XO5\sw_I3C_XO5\gpi_i3c_led\Debug/../src/bsp/driver/i3c_controller/i3c_controller.c:366
			}
			else
			{
				return 0;
     d72:	4781                	li	a5,0
C:\Users\billzhang\Desktop\I3C_XO5\sw_I3C_XO5\gpi_i3c_led\Debug/../src/bsp/driver/i3c_controller/i3c_controller.c:370 (discriminator 1)
			}
		}
	}
}
     d74:	853e                	mv	a0,a5
     d76:	50b2                	lw	ra,44(sp)
     d78:	5422                	lw	s0,40(sp)
     d7a:	6145                	addi	sp,sp,48
     d7c:	8082                	ret

00000d7e <gpio_init>:
gpio_init():
C:\Users\billzhang\Desktop\I3C_XO5\sw_I3C_XO5\gpi_i3c_led\Debug/../src/bsp/driver/gpio/gpio.c:60
#include <stddef.h>

unsigned char gpio_init(struct gpio_instance *this_gpio,
		uint32_t base_addr,
		uint32_t lines_num, uint32_t gpio_dirs)
{
     d7e:	7179                	addi	sp,sp,-48
     d80:	d606                	sw	ra,44(sp)
     d82:	d422                	sw	s0,40(sp)
     d84:	1800                	addi	s0,sp,48
     d86:	fca42e23          	sw	a0,-36(s0)
     d8a:	fcb42c23          	sw	a1,-40(s0)
     d8e:	fcc42a23          	sw	a2,-44(s0)
     d92:	fcd42823          	sw	a3,-48(s0)
C:\Users\billzhang\Desktop\I3C_XO5\sw_I3C_XO5\gpi_i3c_led\Debug/../src/bsp/driver/gpio/gpio.c:61
	unsigned int index = 0;
     d96:	fe042623          	sw	zero,-20(s0)
C:\Users\billzhang\Desktop\I3C_XO5\sw_I3C_XO5\gpi_i3c_led\Debug/../src/bsp/driver/gpio/gpio.c:62
	if (NULL == this_gpio) {
     d9a:	fdc42783          	lw	a5,-36(s0)
     d9e:	e399                	bnez	a5,da4 <gpio_init+0x26>
C:\Users\billzhang\Desktop\I3C_XO5\sw_I3C_XO5\gpi_i3c_led\Debug/../src/bsp/driver/gpio/gpio.c:63
		return 1;
     da0:	4785                	li	a5,1
     da2:	a05d                	j	e48 <gpio_init+0xca>
C:\Users\billzhang\Desktop\I3C_XO5\sw_I3C_XO5\gpi_i3c_led\Debug/../src/bsp/driver/gpio/gpio.c:65
	}
	this_gpio->base_address = base_addr;
     da4:	fdc42783          	lw	a5,-36(s0)
     da8:	fd842703          	lw	a4,-40(s0)
     dac:	c3d8                	sw	a4,4(a5)
C:\Users\billzhang\Desktop\I3C_XO5\sw_I3C_XO5\gpi_i3c_led\Debug/../src/bsp/driver/gpio/gpio.c:67

	for (index = 0; index < lines_num; index++) {
     dae:	fe042623          	sw	zero,-20(s0)
     db2:	a061                	j	e3a <gpio_init+0xbc>
C:\Users\billzhang\Desktop\I3C_XO5\sw_I3C_XO5\gpi_i3c_led\Debug/../src/bsp/driver/gpio/gpio.c:68
		this_gpio->gpio_config[index].pin = 0x01 << index;
     db4:	fec42783          	lw	a5,-20(s0)
     db8:	4705                	li	a4,1
     dba:	00f717b3          	sll	a5,a4,a5
     dbe:	86be                	mv	a3,a5
     dc0:	fdc42703          	lw	a4,-36(s0)
     dc4:	fec42783          	lw	a5,-20(s0)
     dc8:	078a                	slli	a5,a5,0x2
     dca:	97ba                	add	a5,a5,a4
     dcc:	c794                	sw	a3,8(a5)
C:\Users\billzhang\Desktop\I3C_XO5\sw_I3C_XO5\gpi_i3c_led\Debug/../src/bsp/driver/gpio/gpio.c:70

		if (gpio_dirs & (0x01 << index)) {
     dce:	fec42783          	lw	a5,-20(s0)
     dd2:	4705                	li	a4,1
     dd4:	00f717b3          	sll	a5,a4,a5
     dd8:	873e                	mv	a4,a5
     dda:	fd042783          	lw	a5,-48(s0)
     dde:	8ff9                	and	a5,a5,a4
     de0:	c79d                	beqz	a5,e0e <gpio_init+0x90>
C:\Users\billzhang\Desktop\I3C_XO5\sw_I3C_XO5\gpi_i3c_led\Debug/../src/bsp/driver/gpio/gpio.c:71
			reg_32b_modify(this_gpio->base_address | GPIO_DIRECTION,
     de2:	fdc42783          	lw	a5,-36(s0)
     de6:	43dc                	lw	a5,4(a5)
     de8:	0107e693          	ori	a3,a5,16
     dec:	fdc42703          	lw	a4,-36(s0)
     df0:	fec42783          	lw	a5,-20(s0)
     df4:	078a                	slli	a5,a5,0x2
     df6:	97ba                	add	a5,a5,a4
     df8:	478c                	lw	a1,8(a5)
C:\Users\billzhang\Desktop\I3C_XO5\sw_I3C_XO5\gpi_i3c_led\Debug/../src/bsp/driver/gpio/gpio.c:72
					this_gpio->gpio_config[index].pin, (GPIO_OUTPUT << index));
     dfa:	fec42783          	lw	a5,-20(s0)
     dfe:	4705                	li	a4,1
     e00:	00f717b3          	sll	a5,a4,a5
C:\Users\billzhang\Desktop\I3C_XO5\sw_I3C_XO5\gpi_i3c_led\Debug/../src/bsp/driver/gpio/gpio.c:71
			reg_32b_modify(this_gpio->base_address | GPIO_DIRECTION,
     e04:	863e                	mv	a2,a5
     e06:	8536                	mv	a0,a3
     e08:	ea8ff0ef          	jal	ra,4b0 <reg_32b_modify>
     e0c:	a015                	j	e30 <gpio_init+0xb2>
C:\Users\billzhang\Desktop\I3C_XO5\sw_I3C_XO5\gpi_i3c_led\Debug/../src/bsp/driver/gpio/gpio.c:77
#ifdef _DIRECTION_INTERNAL_MEMORY_USE_
			this_gpio->gpio_config[index].direction = GPIO_OUTPUT;
#endif
		} else {
			reg_32b_modify(this_gpio->base_address | GPIO_DIRECTION,
     e0e:	fdc42783          	lw	a5,-36(s0)
     e12:	43dc                	lw	a5,4(a5)
     e14:	0107e693          	ori	a3,a5,16
     e18:	fdc42703          	lw	a4,-36(s0)
     e1c:	fec42783          	lw	a5,-20(s0)
     e20:	078a                	slli	a5,a5,0x2
     e22:	97ba                	add	a5,a5,a4
     e24:	479c                	lw	a5,8(a5)
     e26:	4601                	li	a2,0
     e28:	85be                	mv	a1,a5
     e2a:	8536                	mv	a0,a3
     e2c:	e84ff0ef          	jal	ra,4b0 <reg_32b_modify>
C:\Users\billzhang\Desktop\I3C_XO5\sw_I3C_XO5\gpi_i3c_led\Debug/../src/bsp/driver/gpio/gpio.c:67 (discriminator 2)
	for (index = 0; index < lines_num; index++) {
     e30:	fec42783          	lw	a5,-20(s0)
     e34:	0785                	addi	a5,a5,1
     e36:	fef42623          	sw	a5,-20(s0)
C:\Users\billzhang\Desktop\I3C_XO5\sw_I3C_XO5\gpi_i3c_led\Debug/../src/bsp/driver/gpio/gpio.c:67 (discriminator 1)
     e3a:	fec42703          	lw	a4,-20(s0)
     e3e:	fd442783          	lw	a5,-44(s0)
     e42:	f6f769e3          	bltu	a4,a5,db4 <gpio_init+0x36>
C:\Users\billzhang\Desktop\I3C_XO5\sw_I3C_XO5\gpi_i3c_led\Debug/../src/bsp/driver/gpio/gpio.c:84
#ifdef _DIRECTION_INTERNAL_MEMORY_USE_
			this_gpio->gpio_config[index].direction = GPIO_INPUT;
#endif
		}
	}
	return 0;
     e46:	4781                	li	a5,0
C:\Users\billzhang\Desktop\I3C_XO5\sw_I3C_XO5\gpi_i3c_led\Debug/../src/bsp/driver/gpio/gpio.c:85
}
     e48:	853e                	mv	a0,a5
     e4a:	50b2                	lw	ra,44(sp)
     e4c:	5422                	lw	s0,40(sp)
     e4e:	6145                	addi	sp,sp,48
     e50:	8082                	ret

00000e52 <gpio_output_write>:
gpio_output_write():
C:\Users\billzhang\Desktop\I3C_XO5\sw_I3C_XO5\gpi_i3c_led\Debug/../src/bsp/driver/gpio/gpio.c:104
	return 0;
}

unsigned char gpio_output_write(struct gpio_instance *this_gpio,
		uint32_t index, uint32_t value)
{
     e52:	1101                	addi	sp,sp,-32
     e54:	ce06                	sw	ra,28(sp)
     e56:	cc22                	sw	s0,24(sp)
     e58:	1000                	addi	s0,sp,32
     e5a:	fea42623          	sw	a0,-20(s0)
     e5e:	feb42423          	sw	a1,-24(s0)
     e62:	fec42223          	sw	a2,-28(s0)
C:\Users\billzhang\Desktop\I3C_XO5\sw_I3C_XO5\gpi_i3c_led\Debug/../src/bsp/driver/gpio/gpio.c:105
	if (NULL == this_gpio) {
     e66:	fec42783          	lw	a5,-20(s0)
     e6a:	e399                	bnez	a5,e70 <gpio_output_write+0x1e>
C:\Users\billzhang\Desktop\I3C_XO5\sw_I3C_XO5\gpi_i3c_led\Debug/../src/bsp/driver/gpio/gpio.c:106
		return 1;
     e6c:	4785                	li	a5,1
     e6e:	a025                	j	e96 <gpio_output_write+0x44>
C:\Users\billzhang\Desktop\I3C_XO5\sw_I3C_XO5\gpi_i3c_led\Debug/../src/bsp/driver/gpio/gpio.c:109
	}

	reg_32b_modify(this_gpio->base_address | GPIO_WR_DATA,
     e70:	fec42783          	lw	a5,-20(s0)
     e74:	43dc                	lw	a5,4(a5)
     e76:	0047e693          	ori	a3,a5,4
     e7a:	fec42703          	lw	a4,-20(s0)
     e7e:	fe842783          	lw	a5,-24(s0)
     e82:	078a                	slli	a5,a5,0x2
     e84:	97ba                	add	a5,a5,a4
     e86:	479c                	lw	a5,8(a5)
     e88:	fe442603          	lw	a2,-28(s0)
     e8c:	85be                	mv	a1,a5
     e8e:	8536                	mv	a0,a3
     e90:	e20ff0ef          	jal	ra,4b0 <reg_32b_modify>
C:\Users\billzhang\Desktop\I3C_XO5\sw_I3C_XO5\gpi_i3c_led\Debug/../src/bsp/driver/gpio/gpio.c:112
			this_gpio->gpio_config[index].pin, value);

	return 0;
     e94:	4781                	li	a5,0
C:\Users\billzhang\Desktop\I3C_XO5\sw_I3C_XO5\gpi_i3c_led\Debug/../src/bsp/driver/gpio/gpio.c:113
}
     e96:	853e                	mv	a0,a5
     e98:	40f2                	lw	ra,28(sp)
     e9a:	4462                	lw	s0,24(sp)
     e9c:	6105                	addi	sp,sp,32
     e9e:	8082                	ret

00000ea0 <gpio_input_get>:
gpio_input_get():
C:\Users\billzhang\Desktop\I3C_XO5\sw_I3C_XO5\gpi_i3c_led\Debug/../src/bsp/driver/gpio/gpio.c:117

unsigned char gpio_input_get(struct gpio_instance *this_gpio,
		uint32_t index, uint32_t *data)
{
     ea0:	1101                	addi	sp,sp,-32
     ea2:	ce06                	sw	ra,28(sp)
     ea4:	cc22                	sw	s0,24(sp)
     ea6:	1000                	addi	s0,sp,32
     ea8:	fea42623          	sw	a0,-20(s0)
     eac:	feb42423          	sw	a1,-24(s0)
     eb0:	fec42223          	sw	a2,-28(s0)
C:\Users\billzhang\Desktop\I3C_XO5\sw_I3C_XO5\gpi_i3c_led\Debug/../src/bsp/driver/gpio/gpio.c:118
	if (NULL == this_gpio) {
     eb4:	fec42783          	lw	a5,-20(s0)
     eb8:	e399                	bnez	a5,ebe <gpio_input_get+0x1e>
C:\Users\billzhang\Desktop\I3C_XO5\sw_I3C_XO5\gpi_i3c_led\Debug/../src/bsp/driver/gpio/gpio.c:119
		return 1;
     eba:	4785                	li	a5,1
     ebc:	a811                	j	ed0 <gpio_input_get+0x30>
C:\Users\billzhang\Desktop\I3C_XO5\sw_I3C_XO5\gpi_i3c_led\Debug/../src/bsp/driver/gpio/gpio.c:121
	}
	reg_32b_read(this_gpio->base_address | GPIO_RD_DATA, data);
     ebe:	fec42783          	lw	a5,-20(s0)
     ec2:	43dc                	lw	a5,4(a5)
     ec4:	fe442583          	lw	a1,-28(s0)
     ec8:	853e                	mv	a0,a5
     eca:	dbaff0ef          	jal	ra,484 <reg_32b_read>
C:\Users\billzhang\Desktop\I3C_XO5\sw_I3C_XO5\gpi_i3c_led\Debug/../src/bsp/driver/gpio/gpio.c:122
	return 0;
     ece:	4781                	li	a5,0
C:\Users\billzhang\Desktop\I3C_XO5\sw_I3C_XO5\gpi_i3c_led\Debug/../src/bsp/driver/gpio/gpio.c:123
}
     ed0:	853e                	mv	a0,a5
     ed2:	40f2                	lw	ra,28(sp)
     ed4:	4462                	lw	s0,24(sp)
     ed6:	6105                	addi	sp,sp,32
     ed8:	8082                	ret

00000eda <lscc_uart_putc>:
lscc_uart_putc():
C:\Users\billzhang\Desktop\I3C_XO5\sw_I3C_XO5\gpi_i3c_led\Debug/../src/main.c:31
// 傳遞 1 個資料，值由 GPIO 9~11 動態決定
uint8_t wr_buf[DATA_LENGTH];
uint8_t rd_buf[DATA_LENGTH];

// --- stdio routing functions for printf ---
static int lscc_uart_putc(char c, FILE *file) {
     eda:	7179                	addi	sp,sp,-48
     edc:	d606                	sw	ra,44(sp)
     ede:	d422                	sw	s0,40(sp)
     ee0:	1800                	addi	s0,sp,48
     ee2:	87aa                	mv	a5,a0
     ee4:	fcb42c23          	sw	a1,-40(s0)
     ee8:	fcf40fa3          	sb	a5,-33(s0)
C:\Users\billzhang\Desktop\I3C_XO5\sw_I3C_XO5\gpi_i3c_led\Debug/../src/main.c:32
    int ret = uart_putc(&uart_core_uart, c);
     eec:	fdf44783          	lbu	a5,-33(s0)
     ef0:	85be                	mv	a1,a5
     ef2:	9a418513          	addi	a0,gp,-1628 # 1fb8 <uart_core_uart>
     ef6:	a24ff0ef          	jal	ra,11a <uart_putc>
     efa:	87aa                	mv	a5,a0
     efc:	fef42623          	sw	a5,-20(s0)
C:\Users\billzhang\Desktop\I3C_XO5\sw_I3C_XO5\gpi_i3c_led\Debug/../src/main.c:33
    if (c == '\n' && ret == 0)
     f00:	fdf40703          	lb	a4,-33(s0)
     f04:	47a9                	li	a5,10
     f06:	00f71d63          	bne	a4,a5,f20 <lscc_uart_putc+0x46>
C:\Users\billzhang\Desktop\I3C_XO5\sw_I3C_XO5\gpi_i3c_led\Debug/../src/main.c:33 (discriminator 1)
     f0a:	fec42783          	lw	a5,-20(s0)
     f0e:	eb89                	bnez	a5,f20 <lscc_uart_putc+0x46>
C:\Users\billzhang\Desktop\I3C_XO5\sw_I3C_XO5\gpi_i3c_led\Debug/../src/main.c:34
        ret = uart_putc(&uart_core_uart, '\r');
     f10:	45b5                	li	a1,13
     f12:	9a418513          	addi	a0,gp,-1628 # 1fb8 <uart_core_uart>
     f16:	a04ff0ef          	jal	ra,11a <uart_putc>
     f1a:	87aa                	mv	a5,a0
     f1c:	fef42623          	sw	a5,-20(s0)
C:\Users\billzhang\Desktop\I3C_XO5\sw_I3C_XO5\gpi_i3c_led\Debug/../src/main.c:35
    return ret;
     f20:	fec42783          	lw	a5,-20(s0)
C:\Users\billzhang\Desktop\I3C_XO5\sw_I3C_XO5\gpi_i3c_led\Debug/../src/main.c:36
}
     f24:	853e                	mv	a0,a5
     f26:	50b2                	lw	ra,44(sp)
     f28:	5422                	lw	s0,40(sp)
     f2a:	6145                	addi	sp,sp,48
     f2c:	8082                	ret

00000f2e <lscc_uart_getc>:
lscc_uart_getc():
C:\Users\billzhang\Desktop\I3C_XO5\sw_I3C_XO5\gpi_i3c_led\Debug/../src/main.c:37
static int lscc_uart_getc(FILE *file) { return EOF; }
     f2e:	1101                	addi	sp,sp,-32
     f30:	ce22                	sw	s0,28(sp)
     f32:	1000                	addi	s0,sp,32
     f34:	fea42623          	sw	a0,-20(s0)
     f38:	57fd                	li	a5,-1
     f3a:	853e                	mv	a0,a5
     f3c:	4472                	lw	s0,28(sp)
     f3e:	6105                	addi	sp,sp,32
     f40:	8082                	ret

00000f42 <lscc_uart_flush>:
lscc_uart_flush():
C:\Users\billzhang\Desktop\I3C_XO5\sw_I3C_XO5\gpi_i3c_led\Debug/../src/main.c:38
static int lscc_uart_flush(FILE *file) { return EOF; }
     f42:	1101                	addi	sp,sp,-32
     f44:	ce22                	sw	s0,28(sp)
     f46:	1000                	addi	s0,sp,32
     f48:	fea42623          	sw	a0,-20(s0)
     f4c:	57fd                	li	a5,-1
     f4e:	853e                	mv	a0,a5
     f50:	4472                	lw	s0,28(sp)
     f52:	6105                	addi	sp,sp,32
     f54:	8082                	ret

00000f56 <simple_delay_ms>:
simple_delay_ms():
C:\Users\billzhang\Desktop\I3C_XO5\sw_I3C_XO5\gpi_i3c_led\Debug/../src/main.c:41
// ------------------------------------------

static void simple_delay_ms(uint32_t ms) {
     f56:	7179                	addi	sp,sp,-48
     f58:	d622                	sw	s0,44(sp)
     f5a:	1800                	addi	s0,sp,48
     f5c:	fca42e23          	sw	a0,-36(s0)
C:\Users\billzhang\Desktop\I3C_XO5\sw_I3C_XO5\gpi_i3c_led\Debug/../src/main.c:42
    for (volatile uint32_t i = 0; i < (ms * 10000); i++);
     f60:	fe042623          	sw	zero,-20(s0)
     f64:	a031                	j	f70 <simple_delay_ms+0x1a>
C:\Users\billzhang\Desktop\I3C_XO5\sw_I3C_XO5\gpi_i3c_led\Debug/../src/main.c:42 (discriminator 3)
     f66:	fec42783          	lw	a5,-20(s0)
     f6a:	0785                	addi	a5,a5,1
     f6c:	fef42623          	sw	a5,-20(s0)
C:\Users\billzhang\Desktop\I3C_XO5\sw_I3C_XO5\gpi_i3c_led\Debug/../src/main.c:42 (discriminator 1)
     f70:	fdc42703          	lw	a4,-36(s0)
     f74:	6789                	lui	a5,0x2
     f76:	71078793          	addi	a5,a5,1808 # 2710 <__global_pointer$+0xfc>
     f7a:	02f70733          	mul	a4,a4,a5
     f7e:	fec42783          	lw	a5,-20(s0)
     f82:	fee7e2e3          	bltu	a5,a4,f66 <simple_delay_ms+0x10>
C:\Users\billzhang\Desktop\I3C_XO5\sw_I3C_XO5\gpi_i3c_led\Debug/../src/main.c:43
}
     f86:	0001                	nop
     f88:	0001                	nop
     f8a:	5432                	lw	s0,44(sp)
     f8c:	6145                	addi	sp,sp,48
     f8e:	8082                	ret

00000f90 <set_led_all_off>:
set_led_all_off():
C:\Users\billzhang\Desktop\I3C_XO5\sw_I3C_XO5\gpi_i3c_led\Debug/../src/main.c:45

static void set_led_all_off(void) {
     f90:	1101                	addi	sp,sp,-32
     f92:	ce06                	sw	ra,28(sp)
     f94:	cc22                	sw	s0,24(sp)
     f96:	1000                	addi	s0,sp,32
C:\Users\billzhang\Desktop\I3C_XO5\sw_I3C_XO5\gpi_i3c_led\Debug/../src/main.c:47
#ifdef GPIO_INST_BASE_ADDR
    for (int i = 0; i < 8; i++)
     f98:	fe042623          	sw	zero,-20(s0)
     f9c:	a831                	j	fb8 <set_led_all_off+0x28>
C:\Users\billzhang\Desktop\I3C_XO5\sw_I3C_XO5\gpi_i3c_led\Debug/../src/main.c:48 (discriminator 3)
        gpio_output_write(&gpio_inst, i, 0xFF); // 輸出 1 關閉 LED (Active Low)
     f9e:	fec42783          	lw	a5,-20(s0)
     fa2:	0ff00613          	li	a2,255
     fa6:	85be                	mv	a1,a5
     fa8:	91c18513          	addi	a0,gp,-1764 # 1f30 <gpio_inst>
     fac:	355d                	jal	e52 <gpio_output_write>
C:\Users\billzhang\Desktop\I3C_XO5\sw_I3C_XO5\gpi_i3c_led\Debug/../src/main.c:47 (discriminator 3)
    for (int i = 0; i < 8; i++)
     fae:	fec42783          	lw	a5,-20(s0)
     fb2:	0785                	addi	a5,a5,1
     fb4:	fef42623          	sw	a5,-20(s0)
C:\Users\billzhang\Desktop\I3C_XO5\sw_I3C_XO5\gpi_i3c_led\Debug/../src/main.c:47 (discriminator 1)
     fb8:	fec42703          	lw	a4,-20(s0)
     fbc:	479d                	li	a5,7
     fbe:	fee7d0e3          	bge	a5,a4,f9e <set_led_all_off+0xe>
C:\Users\billzhang\Desktop\I3C_XO5\sw_I3C_XO5\gpi_i3c_led\Debug/../src/main.c:50
#endif
}
     fc2:	0001                	nop
     fc4:	0001                	nop
     fc6:	40f2                	lw	ra,28(sp)
     fc8:	4462                	lw	s0,24(sp)
     fca:	6105                	addi	sp,sp,32
     fcc:	8082                	ret

00000fce <set_led_on>:
set_led_on():
C:\Users\billzhang\Desktop\I3C_XO5\sw_I3C_XO5\gpi_i3c_led\Debug/../src/main.c:52

static void set_led_on(uint8_t id) {
     fce:	1101                	addi	sp,sp,-32
     fd0:	ce06                	sw	ra,28(sp)
     fd2:	cc22                	sw	s0,24(sp)
     fd4:	1000                	addi	s0,sp,32
     fd6:	87aa                	mv	a5,a0
     fd8:	fef407a3          	sb	a5,-17(s0)
C:\Users\billzhang\Desktop\I3C_XO5\sw_I3C_XO5\gpi_i3c_led\Debug/../src/main.c:54
#ifdef GPIO_INST_BASE_ADDR
    gpio_output_write(&gpio_inst, id, 0x00); // 輸出 0 點亮該 LED
     fdc:	fef44783          	lbu	a5,-17(s0)
     fe0:	4601                	li	a2,0
     fe2:	85be                	mv	a1,a5
     fe4:	91c18513          	addi	a0,gp,-1764 # 1f30 <gpio_inst>
     fe8:	35ad                	jal	e52 <gpio_output_write>
C:\Users\billzhang\Desktop\I3C_XO5\sw_I3C_XO5\gpi_i3c_led\Debug/../src/main.c:56
#endif
}
     fea:	0001                	nop
     fec:	40f2                	lw	ra,28(sp)
     fee:	4462                	lw	s0,24(sp)
     ff0:	6105                	addi	sp,sp,32
     ff2:	8082                	ret

00000ff4 <set_led_all_on>:
set_led_all_on():
C:\Users\billzhang\Desktop\I3C_XO5\sw_I3C_XO5\gpi_i3c_led\Debug/../src/main.c:58

static void set_led_all_on(void) {
     ff4:	1101                	addi	sp,sp,-32
     ff6:	ce06                	sw	ra,28(sp)
     ff8:	cc22                	sw	s0,24(sp)
     ffa:	1000                	addi	s0,sp,32
C:\Users\billzhang\Desktop\I3C_XO5\sw_I3C_XO5\gpi_i3c_led\Debug/../src/main.c:60
#ifdef GPIO_INST_BASE_ADDR
    for (int i = 0; i < 8; i++)
     ffc:	fe042623          	sw	zero,-20(s0)
    1000:	a829                	j	101a <set_led_all_on+0x26>
C:\Users\billzhang\Desktop\I3C_XO5\sw_I3C_XO5\gpi_i3c_led\Debug/../src/main.c:61 (discriminator 3)
        gpio_output_write(&gpio_inst, i, 0x00); // 輸出 0 點亮 LED (Active Low)
    1002:	fec42783          	lw	a5,-20(s0)
    1006:	4601                	li	a2,0
    1008:	85be                	mv	a1,a5
    100a:	91c18513          	addi	a0,gp,-1764 # 1f30 <gpio_inst>
    100e:	3591                	jal	e52 <gpio_output_write>
C:\Users\billzhang\Desktop\I3C_XO5\sw_I3C_XO5\gpi_i3c_led\Debug/../src/main.c:60 (discriminator 3)
    for (int i = 0; i < 8; i++)
    1010:	fec42783          	lw	a5,-20(s0)
    1014:	0785                	addi	a5,a5,1
    1016:	fef42623          	sw	a5,-20(s0)
C:\Users\billzhang\Desktop\I3C_XO5\sw_I3C_XO5\gpi_i3c_led\Debug/../src/main.c:60 (discriminator 1)
    101a:	fec42703          	lw	a4,-20(s0)
    101e:	479d                	li	a5,7
    1020:	fee7d1e3          	bge	a5,a4,1002 <set_led_all_on+0xe>
C:\Users\billzhang\Desktop\I3C_XO5\sw_I3C_XO5\gpi_i3c_led\Debug/../src/main.c:63
#endif
}
    1024:	0001                	nop
    1026:	0001                	nop
    1028:	40f2                	lw	ra,28(sp)
    102a:	4462                	lw	s0,24(sp)
    102c:	6105                	addi	sp,sp,32
    102e:	8082                	ret

00001030 <set_led_bar>:
set_led_bar():
C:\Users\billzhang\Desktop\I3C_XO5\sw_I3C_XO5\gpi_i3c_led\Debug/../src/main.c:66

// 將 0~7 的數值轉換成 Bar Graph (柱狀圖) 顯示，亮 N 顆燈 (GPIO 0 ~ N-1)
static void set_led_bar(uint8_t count) {
    1030:	7179                	addi	sp,sp,-48
    1032:	d606                	sw	ra,44(sp)
    1034:	d422                	sw	s0,40(sp)
    1036:	1800                	addi	s0,sp,48
    1038:	87aa                	mv	a5,a0
    103a:	fcf40fa3          	sb	a5,-33(s0)
C:\Users\billzhang\Desktop\I3C_XO5\sw_I3C_XO5\gpi_i3c_led\Debug/../src/main.c:68
#ifdef GPIO_INST_BASE_ADDR
    for (int i = 0; i < 8; i++) {
    103e:	fe042623          	sw	zero,-20(s0)
    1042:	a825                	j	107a <set_led_bar+0x4a>
C:\Users\billzhang\Desktop\I3C_XO5\sw_I3C_XO5\gpi_i3c_led\Debug/../src/main.c:69
        if (i < count) {
    1044:	fdf44783          	lbu	a5,-33(s0)
    1048:	fec42703          	lw	a4,-20(s0)
    104c:	00f75a63          	bge	a4,a5,1060 <set_led_bar+0x30>
C:\Users\billzhang\Desktop\I3C_XO5\sw_I3C_XO5\gpi_i3c_led\Debug/../src/main.c:70
            gpio_output_write(&gpio_inst, i, 0x00); // 點亮
    1050:	fec42783          	lw	a5,-20(s0)
    1054:	4601                	li	a2,0
    1056:	85be                	mv	a1,a5
    1058:	91c18513          	addi	a0,gp,-1764 # 1f30 <gpio_inst>
    105c:	3bdd                	jal	e52 <gpio_output_write>
    105e:	a809                	j	1070 <set_led_bar+0x40>
C:\Users\billzhang\Desktop\I3C_XO5\sw_I3C_XO5\gpi_i3c_led\Debug/../src/main.c:72
        } else {
            gpio_output_write(&gpio_inst, i, 0xFF); // 關閉
    1060:	fec42783          	lw	a5,-20(s0)
    1064:	0ff00613          	li	a2,255
    1068:	85be                	mv	a1,a5
    106a:	91c18513          	addi	a0,gp,-1764 # 1f30 <gpio_inst>
    106e:	33d5                	jal	e52 <gpio_output_write>
C:\Users\billzhang\Desktop\I3C_XO5\sw_I3C_XO5\gpi_i3c_led\Debug/../src/main.c:68 (discriminator 2)
    for (int i = 0; i < 8; i++) {
    1070:	fec42783          	lw	a5,-20(s0)
    1074:	0785                	addi	a5,a5,1
    1076:	fef42623          	sw	a5,-20(s0)
C:\Users\billzhang\Desktop\I3C_XO5\sw_I3C_XO5\gpi_i3c_led\Debug/../src/main.c:68 (discriminator 1)
    107a:	fec42703          	lw	a4,-20(s0)
    107e:	479d                	li	a5,7
    1080:	fce7d2e3          	bge	a5,a4,1044 <set_led_bar+0x14>
C:\Users\billzhang\Desktop\I3C_XO5\sw_I3C_XO5\gpi_i3c_led\Debug/../src/main.c:76
        }
    }
#endif
}
    1084:	0001                	nop
    1086:	0001                	nop
    1088:	50b2                	lw	ra,44(sp)
    108a:	5422                	lw	s0,40(sp)
    108c:	6145                	addi	sp,sp,48
    108e:	8082                	ret

00001090 <halt_with_blink_error>:
halt_with_blink_error():
C:\Users\billzhang\Desktop\I3C_XO5\sw_I3C_XO5\gpi_i3c_led\Debug/../src/main.c:79

// 錯誤發生時：GPIO 0 閃爍
static void halt_with_blink_error(void) {
    1090:	1141                	addi	sp,sp,-16
    1092:	c606                	sw	ra,12(sp)
    1094:	c422                	sw	s0,8(sp)
    1096:	0800                	addi	s0,sp,16
C:\Users\billzhang\Desktop\I3C_XO5\sw_I3C_XO5\gpi_i3c_led\Debug/../src/main.c:80
    printf("SYSTEM HALTED WITH ERROR.\n");
    1098:	6789                	lui	a5,0x2
    109a:	adc78513          	addi	a0,a5,-1316 # 1adc <__iob+0x78>
    109e:	26dd                	jal	1484 <puts>
C:\Users\billzhang\Desktop\I3C_XO5\sw_I3C_XO5\gpi_i3c_led\Debug/../src/main.c:82 (discriminator 1)
    while(1) {
        set_led_all_off();
    10a0:	3dc5                	jal	f90 <set_led_all_off>
C:\Users\billzhang\Desktop\I3C_XO5\sw_I3C_XO5\gpi_i3c_led\Debug/../src/main.c:83 (discriminator 1)
        set_led_on(0); // 點亮 GPIO0
    10a2:	4501                	li	a0,0
    10a4:	372d                	jal	fce <set_led_on>
C:\Users\billzhang\Desktop\I3C_XO5\sw_I3C_XO5\gpi_i3c_led\Debug/../src/main.c:84 (discriminator 1)
        simple_delay_ms(200);
    10a6:	0c800513          	li	a0,200
    10aa:	3575                	jal	f56 <simple_delay_ms>
C:\Users\billzhang\Desktop\I3C_XO5\sw_I3C_XO5\gpi_i3c_led\Debug/../src/main.c:85 (discriminator 1)
        set_led_all_off(); // 關閉全燈
    10ac:	35d5                	jal	f90 <set_led_all_off>
C:\Users\billzhang\Desktop\I3C_XO5\sw_I3C_XO5\gpi_i3c_led\Debug/../src/main.c:86 (discriminator 1)
        simple_delay_ms(200);
    10ae:	0c800513          	li	a0,200
    10b2:	3555                	jal	f56 <simple_delay_ms>
C:\Users\billzhang\Desktop\I3C_XO5\sw_I3C_XO5\gpi_i3c_led\Debug/../src/main.c:82 (discriminator 1)
        set_led_all_off();
    10b4:	b7f5                	j	10a0 <halt_with_blink_error+0x10>

000010b6 <bsp_init>:
bsp_init():
C:\Users\billzhang\Desktop\I3C_XO5\sw_I3C_XO5\gpi_i3c_led\Debug/../src/main.c:90
    }
}

static void bsp_init(void) {
    10b6:	1101                	addi	sp,sp,-32
    10b8:	ce06                	sw	ra,28(sp)
    10ba:	cc22                	sw	s0,24(sp)
    10bc:	1000                	addi	s0,sp,32
C:\Users\billzhang\Desktop\I3C_XO5\sw_I3C_XO5\gpi_i3c_led\Debug/../src/main.c:92
#ifdef GPIO_INST_BASE_ADDR
    gpio_inst.instance_name = GPIO_INST_NAME;
    10be:	91c18793          	addi	a5,gp,-1764 # 1f30 <gpio_inst>
    10c2:	6709                	lui	a4,0x2
    10c4:	af870713          	addi	a4,a4,-1288 # 1af8 <__iob+0x94>
    10c8:	c398                	sw	a4,0(a5)
C:\Users\billzhang\Desktop\I3C_XO5\sw_I3C_XO5\gpi_i3c_led\Debug/../src/main.c:93
    gpio_init(&gpio_inst, GPIO_INST_BASE_ADDR, GPIO_INST_LINES_NUM, GPIO_INST_GPIO_DIRS);
    10ca:	0ff00693          	li	a3,255
    10ce:	4625                	li	a2,9
    10d0:	65c1                	lui	a1,0x10
    10d2:	91c18513          	addi	a0,gp,-1764 # 1f30 <gpio_inst>
    10d6:	3165                	jal	d7e <gpio_init>
C:\Users\billzhang\Desktop\I3C_XO5\sw_I3C_XO5\gpi_i3c_led\Debug/../src/main.c:94
    set_led_all_off();
    10d8:	3d65                	jal	f90 <set_led_all_off>
C:\Users\billzhang\Desktop\I3C_XO5\sw_I3C_XO5\gpi_i3c_led\Debug/../src/main.c:97
#endif

    unsigned char uart_status = uart_init(
    10da:	47a1                	li	a5,8
    10dc:	4705                	li	a4,1
    10de:	66f1                	lui	a3,0x1c
    10e0:	20068693          	addi	a3,a3,512 # 1c200 <_stack_start+0x19680>
    10e4:	4665                	li	a2,25
    10e6:	65c5                	lui	a1,0x11
    10e8:	c0058593          	addi	a1,a1,-1024 # 10c00 <_stack_start+0xe080>
    10ec:	9a418513          	addi	a0,gp,-1628 # 1fb8 <uart_core_uart>
    10f0:	fa1fe0ef          	jal	ra,90 <uart_init>
    10f4:	87aa                	mv	a5,a0
    10f6:	fef407a3          	sb	a5,-17(s0)
C:\Users\billzhang\Desktop\I3C_XO5\sw_I3C_XO5\gpi_i3c_led\Debug/../src/main.c:101
        &uart_core_uart, UART0_INST_BASE_ADDR,
        UART0_INST_SYS_CLK, UART0_INST_BAUD_RATE, 1, 8);

    if (uart_status != 0) {
    10fa:	fef44783          	lbu	a5,-17(s0)
    10fe:	c399                	beqz	a5,1104 <bsp_init+0x4e>
C:\Users\billzhang\Desktop\I3C_XO5\sw_I3C_XO5\gpi_i3c_led\Debug/../src/main.c:102
        set_led_all_on();
    1100:	3dd5                	jal	ff4 <set_led_all_on>
C:\Users\billzhang\Desktop\I3C_XO5\sw_I3C_XO5\gpi_i3c_led\Debug/../src/main.c:103 (discriminator 1)
        while(1);
    1102:	a001                	j	1102 <bsp_init+0x4c>
C:\Users\billzhang\Desktop\I3C_XO5\sw_I3C_XO5\gpi_i3c_led\Debug/../src/main.c:105
    }
    iob_init(lscc_uart_putc, lscc_uart_getc, lscc_uart_flush);
    1104:	6785                	lui	a5,0x1
    1106:	f4278613          	addi	a2,a5,-190 # f42 <lscc_uart_flush>
    110a:	6785                	lui	a5,0x1
    110c:	f2e78593          	addi	a1,a5,-210 # f2e <lscc_uart_getc>
    1110:	6785                	lui	a5,0x1
    1112:	eda78513          	addi	a0,a5,-294 # eda <lscc_uart_putc>
    1116:	a38ff0ef          	jal	ra,34e <iob_init>
C:\Users\billzhang\Desktop\I3C_XO5\sw_I3C_XO5\gpi_i3c_led\Debug/../src/main.c:106
}
    111a:	0001                	nop
    111c:	40f2                	lw	ra,28(sp)
    111e:	4462                	lw	s0,24(sp)
    1120:	6105                	addi	sp,sp,32
    1122:	8082                	ret

00001124 <main>:
main():
C:\Users\billzhang\Desktop\I3C_XO5\sw_I3C_XO5\gpi_i3c_led\Debug/../src/main.c:108

int main(void) {
    1124:	7179                	addi	sp,sp,-48
    1126:	d606                	sw	ra,44(sp)
    1128:	d422                	sw	s0,40(sp)
    112a:	1800                	addi	s0,sp,48
C:\Users\billzhang\Desktop\I3C_XO5\sw_I3C_XO5\gpi_i3c_led\Debug/../src/main.c:109
    bsp_init();
    112c:	3769                	jal	10b6 <bsp_init>
C:\Users\billzhang\Desktop\I3C_XO5\sw_I3C_XO5\gpi_i3c_led\Debug/../src/main.c:111

    printf("\n\n--- System Initialization Complete ---\n");
    112e:	6789                	lui	a5,0x2
    1130:	b0478513          	addi	a0,a5,-1276 # 1b04 <__iob+0xa0>
    1134:	2e81                	jal	1484 <puts>
C:\Users\billzhang\Desktop\I3C_XO5\sw_I3C_XO5\gpi_i3c_led\Debug/../src/main.c:114
    
    // ── Step 0: I3C Initialization (Master & Target) ─────────────────
    printf("Starting I3C Master init...\n");
    1136:	6789                	lui	a5,0x2
    1138:	b3078513          	addi	a0,a5,-1232 # 1b30 <__iob+0xcc>
    113c:	26a1                	jal	1484 <puts>
C:\Users\billzhang\Desktop\I3C_XO5\sw_I3C_XO5\gpi_i3c_led\Debug/../src/main.c:115
    if (i3c_master_init(&i3cm, I3C_M_INST_BASE_ADDR, 0,
    113e:	4705                	li	a4,1
    1140:	46b1                	li	a3,12
    1142:	4601                	li	a2,0
    1144:	67c1                	lui	a5,0x10
    1146:	40078593          	addi	a1,a5,1024 # 10400 <_stack_start+0xd880>
    114a:	9fc18513          	addi	a0,gp,-1540 # 2010 <i3cm>
    114e:	d34ff0ef          	jal	ra,682 <i3c_master_init>
    1152:	87aa                	mv	a5,a0
    1154:	c791                	beqz	a5,1160 <main+0x3c>
C:\Users\billzhang\Desktop\I3C_XO5\sw_I3C_XO5\gpi_i3c_led\Debug/../src/main.c:117
                        I3C_M_INST_GUI_I2C_SCL_PULSE_WIDTH - 1, 1) != 0) {
        printf("ERROR: I3C Master init FAILED.\n");
    1156:	6789                	lui	a5,0x2
    1158:	b4c78513          	addi	a0,a5,-1204 # 1b4c <__iob+0xe8>
    115c:	2625                	jal	1484 <puts>
C:\Users\billzhang\Desktop\I3C_XO5\sw_I3C_XO5\gpi_i3c_led\Debug/../src/main.c:118
        halt_with_blink_error();
    115e:	3f0d                	jal	1090 <halt_with_blink_error>
C:\Users\billzhang\Desktop\I3C_XO5\sw_I3C_XO5\gpi_i3c_led\Debug/../src/main.c:121
    }
    
    printf("Starting I3C Target init...\n");
    1160:	6789                	lui	a5,0x2
    1162:	b6c78513          	addi	a0,a5,-1172 # 1b6c <__iob+0x108>
    1166:	2e39                	jal	1484 <puts>
C:\Users\billzhang\Desktop\I3C_XO5\sw_I3C_XO5\gpi_i3c_led\Debug/../src/main.c:122
    i3cs.base_addr = I3C_S_INST_BASE_ADDR;
    1168:	a4418793          	addi	a5,gp,-1468 # 2058 <i3cs>
    116c:	6745                	lui	a4,0x11
    116e:	80070713          	addi	a4,a4,-2048 # 10800 <_stack_start+0xdc80>
    1172:	c398                	sw	a4,0(a5)
C:\Users\billzhang\Desktop\I3C_XO5\sw_I3C_XO5\gpi_i3c_led\Debug/../src/main.c:123
    if (i3c_target_init(&i3cs) != SUCCESS) {
    1174:	a4418513          	addi	a0,gp,-1468 # 2058 <i3cs>
    1178:	c54ff0ef          	jal	ra,5cc <i3c_target_init>
    117c:	872a                	mv	a4,a0
    117e:	4785                	li	a5,1
    1180:	00f70763          	beq	a4,a5,118e <main+0x6a>
C:\Users\billzhang\Desktop\I3C_XO5\sw_I3C_XO5\gpi_i3c_led\Debug/../src/main.c:124
        printf("ERROR: I3C Target init FAILED.\n");
    1184:	6789                	lui	a5,0x2
    1186:	b8878513          	addi	a0,a5,-1144 # 1b88 <__iob+0x124>
    118a:	2ced                	jal	1484 <puts>
C:\Users\billzhang\Desktop\I3C_XO5\sw_I3C_XO5\gpi_i3c_led\Debug/../src/main.c:125
        halt_with_blink_error();
    118c:	3711                	jal	1090 <halt_with_blink_error>
C:\Users\billzhang\Desktop\I3C_XO5\sw_I3C_XO5\gpi_i3c_led\Debug/../src/main.c:128
    }

    if (i3c_target_fifo_loopback_enable(&i3cs) != SUCCESS) {
    118e:	a4418513          	addi	a0,gp,-1468 # 2058 <i3cs>
    1192:	cb2ff0ef          	jal	ra,644 <i3c_target_fifo_loopback_enable>
    1196:	872a                	mv	a4,a0
    1198:	4785                	li	a5,1
    119a:	00f70763          	beq	a4,a5,11a8 <main+0x84>
C:\Users\billzhang\Desktop\I3C_XO5\sw_I3C_XO5\gpi_i3c_led\Debug/../src/main.c:129
        printf("ERROR: Target FIFO loopback enable FAILED.\n");
    119e:	6789                	lui	a5,0x2
    11a0:	ba878513          	addi	a0,a5,-1112 # 1ba8 <__iob+0x144>
    11a4:	24c5                	jal	1484 <puts>
C:\Users\billzhang\Desktop\I3C_XO5\sw_I3C_XO5\gpi_i3c_led\Debug/../src/main.c:130
        halt_with_blink_error();
    11a6:	35ed                	jal	1090 <halt_with_blink_error>
C:\Users\billzhang\Desktop\I3C_XO5\sw_I3C_XO5\gpi_i3c_led\Debug/../src/main.c:134
    }

    // ── Step 1: Timing Parameters ────────────────────────────────────
    uint8_t clk_val  = 15;
    11a8:	47bd                	li	a5,15
    11aa:	fef403a3          	sb	a5,-25(s0)
C:\Users\billzhang\Desktop\I3C_XO5\sw_I3C_XO5\gpi_i3c_led\Debug/../src/main.c:135
    uint8_t od_val   = 15;
    11ae:	47bd                	li	a5,15
    11b0:	fef40323          	sb	a5,-26(s0)
C:\Users\billzhang\Desktop\I3C_XO5\sw_I3C_XO5\gpi_i3c_led\Debug/../src/main.c:136
    uint8_t ctrl_val = 0;
    11b4:	fe0401a3          	sb	zero,-29(s0)
C:\Users\billzhang\Desktop\I3C_XO5\sw_I3C_XO5\gpi_i3c_led\Debug/../src/main.c:137
    reg_8b_read(i3cm.base_addr | 0x04, &ctrl_val);
    11b8:	9fc18793          	addi	a5,gp,-1540 # 2010 <i3cm>
    11bc:	439c                	lw	a5,0(a5)
    11be:	0047e793          	ori	a5,a5,4
    11c2:	fe340713          	addi	a4,s0,-29
    11c6:	85ba                	mv	a1,a4
    11c8:	853e                	mv	a0,a5
    11ca:	bceff0ef          	jal	ra,598 <reg_8b_read>
C:\Users\billzhang\Desktop\I3C_XO5\sw_I3C_XO5\gpi_i3c_led\Debug/../src/main.c:138
    reg_8b_write(i3cm.base_addr | 0x04, ctrl_val & ~0x01);
    11ce:	9fc18793          	addi	a5,gp,-1540 # 2010 <i3cm>
    11d2:	439c                	lw	a5,0(a5)
    11d4:	0047e713          	ori	a4,a5,4
    11d8:	fe344783          	lbu	a5,-29(s0)
    11dc:	9bf9                	andi	a5,a5,-2
    11de:	0ff7f793          	zext.b	a5,a5
    11e2:	85be                	mv	a1,a5
    11e4:	853a                	mv	a0,a4
    11e6:	b10ff0ef          	jal	ra,4f6 <reg_8b_write>
C:\Users\billzhang\Desktop\I3C_XO5\sw_I3C_XO5\gpi_i3c_led\Debug/../src/main.c:139
    reg_8b_write(i3cm.base_addr | 0x00, clk_val);
    11ea:	9fc18793          	addi	a5,gp,-1540 # 2010 <i3cm>
    11ee:	439c                	lw	a5,0(a5)
    11f0:	fe744703          	lbu	a4,-25(s0)
    11f4:	85ba                	mv	a1,a4
    11f6:	853e                	mv	a0,a5
    11f8:	afeff0ef          	jal	ra,4f6 <reg_8b_write>
C:\Users\billzhang\Desktop\I3C_XO5\sw_I3C_XO5\gpi_i3c_led\Debug/../src/main.c:140
    reg_8b_write(i3cm.base_addr | 0x1A, od_val);
    11fc:	9fc18793          	addi	a5,gp,-1540 # 2010 <i3cm>
    1200:	439c                	lw	a5,0(a5)
    1202:	01a7e793          	ori	a5,a5,26
    1206:	fe644703          	lbu	a4,-26(s0)
    120a:	85ba                	mv	a1,a4
    120c:	853e                	mv	a0,a5
    120e:	ae8ff0ef          	jal	ra,4f6 <reg_8b_write>
C:\Users\billzhang\Desktop\I3C_XO5\sw_I3C_XO5\gpi_i3c_led\Debug/../src/main.c:141
    reg_8b_write(i3cm.base_addr | 0x04, ctrl_val | 0x01);
    1212:	9fc18793          	addi	a5,gp,-1540 # 2010 <i3cm>
    1216:	439c                	lw	a5,0(a5)
    1218:	0047e713          	ori	a4,a5,4
    121c:	fe344783          	lbu	a5,-29(s0)
    1220:	0017e793          	ori	a5,a5,1
    1224:	0ff7f793          	zext.b	a5,a5
    1228:	85be                	mv	a1,a5
    122a:	853a                	mv	a0,a4
    122c:	acaff0ef          	jal	ra,4f6 <reg_8b_write>
C:\Users\billzhang\Desktop\I3C_XO5\sw_I3C_XO5\gpi_i3c_led\Debug/../src/main.c:144

    // ── Step 2: DAA ───────────────────────────────────────────────────
    printf("Starting DAA...\n");
    1230:	6789                	lui	a5,0x2
    1232:	bd478513          	addi	a0,a5,-1068 # 1bd4 <__iob+0x170>
    1236:	24b9                	jal	1484 <puts>
C:\Users\billzhang\Desktop\I3C_XO5\sw_I3C_XO5\gpi_i3c_led\Debug/../src/main.c:145
    i3c_devinfo.pid    = 0;
    1238:	a3418793          	addi	a5,gp,-1484 # 2048 <i3c_devinfo>
    123c:	4681                	li	a3,0
    123e:	4701                	li	a4,0
    1240:	c794                	sw	a3,8(a5)
    1242:	c7d8                	sw	a4,12(a5)
C:\Users\billzhang\Desktop\I3C_XO5\sw_I3C_XO5\gpi_i3c_led\Debug/../src/main.c:146
    uint8_t dyn_address = 0;
    1244:	fe040123          	sb	zero,-30(s0)
C:\Users\billzhang\Desktop\I3C_XO5\sw_I3C_XO5\gpi_i3c_led\Debug/../src/main.c:147
    uint32_t daa_retry  = 0;
    1248:	fe042623          	sw	zero,-20(s0)
C:\Users\billzhang\Desktop\I3C_XO5\sw_I3C_XO5\gpi_i3c_led\Debug/../src/main.c:150

    while (1) {
        uint8_t ret = i3c_master_daa(&i3cm, &i3c_devinfo, &dyn_address,
    124c:	fe240793          	addi	a5,s0,-30
    1250:	02000713          	li	a4,32
    1254:	4685                	li	a3,1
    1256:	863e                	mv	a2,a5
    1258:	a3418593          	addi	a1,gp,-1484 # 2048 <i3c_devinfo>
    125c:	9fc18513          	addi	a0,gp,-1540 # 2010 <i3cm>
    1260:	dccff0ef          	jal	ra,82c <i3c_master_daa>
    1264:	87aa                	mv	a5,a0
    1266:	fef402a3          	sb	a5,-27(s0)
C:\Users\billzhang\Desktop\I3C_XO5\sw_I3C_XO5\gpi_i3c_led\Debug/../src/main.c:152
                                     I3C_SLAVE_NUMS, SLAVE_ADDR);
        if (ret == 0) {
    126a:	fe544783          	lbu	a5,-27(s0)
    126e:	ef91                	bnez	a5,128a <main+0x166>
C:\Users\billzhang\Desktop\I3C_XO5\sw_I3C_XO5\gpi_i3c_led\Debug/../src/main.c:153
            printf(">> DAA SUCCESS! Dynamic Addr = 0x%02X\n", dyn_address);
    1270:	fe244783          	lbu	a5,-30(s0)
    1274:	85be                	mv	a1,a5
    1276:	6789                	lui	a5,0x2
    1278:	be478513          	addi	a0,a5,-1052 # 1be4 <__iob+0x180>
    127c:	22cd                	jal	145e <printf>
C:\Users\billzhang\Desktop\I3C_XO5\sw_I3C_XO5\gpi_i3c_led\Debug/../src/main.c:154
            break;
    127e:	0001                	nop
C:\Users\billzhang\Desktop\I3C_XO5\sw_I3C_XO5\gpi_i3c_led\Debug/../src/main.c:168
        reg_8b_write(i3cm.base_addr | 0x0C, 0x01);
        simple_delay_ms(5);
        reg_8b_write(i3cm.base_addr | 0x0C, 0x00);
    }

    printf("\n--- I3C Initialization Complete. Entering Main Loop ---\n");
    1280:	6789                	lui	a5,0x2
    1282:	c3078513          	addi	a0,a5,-976 # 1c30 <__iob+0x1cc>
    1286:	2afd                	jal	1484 <puts>
    1288:	a0a9                	j	12d2 <main+0x1ae>
C:\Users\billzhang\Desktop\I3C_XO5\sw_I3C_XO5\gpi_i3c_led\Debug/../src/main.c:157
        daa_retry++;
    128a:	fec42783          	lw	a5,-20(s0)
    128e:	0785                	addi	a5,a5,1
    1290:	fef42623          	sw	a5,-20(s0)
C:\Users\billzhang\Desktop\I3C_XO5\sw_I3C_XO5\gpi_i3c_led\Debug/../src/main.c:158
        if (daa_retry >= DAA_WARN_RETRY) {
    1294:	fec42703          	lw	a4,-20(s0)
    1298:	47cd                	li	a5,19
    129a:	00e7f763          	bgeu	a5,a4,12a8 <main+0x184>
C:\Users\billzhang\Desktop\I3C_XO5\sw_I3C_XO5\gpi_i3c_led\Debug/../src/main.c:159
            printf("ERROR: DAA failed too many times.\n");
    129e:	6789                	lui	a5,0x2
    12a0:	c0c78513          	addi	a0,a5,-1012 # 1c0c <__iob+0x1a8>
    12a4:	22c5                	jal	1484 <puts>
C:\Users\billzhang\Desktop\I3C_XO5\sw_I3C_XO5\gpi_i3c_led\Debug/../src/main.c:160
            halt_with_blink_error();
    12a6:	33ed                	jal	1090 <halt_with_blink_error>
C:\Users\billzhang\Desktop\I3C_XO5\sw_I3C_XO5\gpi_i3c_led\Debug/../src/main.c:163
        reg_8b_write(i3cm.base_addr | 0x0C, 0x01);
    12a8:	9fc18793          	addi	a5,gp,-1540 # 2010 <i3cm>
    12ac:	439c                	lw	a5,0(a5)
    12ae:	00c7e793          	ori	a5,a5,12
    12b2:	4585                	li	a1,1
    12b4:	853e                	mv	a0,a5
    12b6:	a40ff0ef          	jal	ra,4f6 <reg_8b_write>
C:\Users\billzhang\Desktop\I3C_XO5\sw_I3C_XO5\gpi_i3c_led\Debug/../src/main.c:164
        simple_delay_ms(5);
    12ba:	4515                	li	a0,5
    12bc:	3969                	jal	f56 <simple_delay_ms>
C:\Users\billzhang\Desktop\I3C_XO5\sw_I3C_XO5\gpi_i3c_led\Debug/../src/main.c:165
        reg_8b_write(i3cm.base_addr | 0x0C, 0x00);
    12be:	9fc18793          	addi	a5,gp,-1540 # 2010 <i3cm>
    12c2:	439c                	lw	a5,0(a5)
    12c4:	00c7e793          	ori	a5,a5,12
    12c8:	4581                	li	a1,0
    12ca:	853e                	mv	a0,a5
    12cc:	a2aff0ef          	jal	ra,4f6 <reg_8b_write>
C:\Users\billzhang\Desktop\I3C_XO5\sw_I3C_XO5\gpi_i3c_led\Debug/../src/main.c:149
    while (1) {
    12d0:	bfb5                	j	124c <main+0x128>
C:\Users\billzhang\Desktop\I3C_XO5\sw_I3C_XO5\gpi_i3c_led\Debug/../src/main.c:173

    // ── Step 3: Main Infinite Loop ───────────────────────────────────
    while (1) {
#ifdef GPIO_INST_BASE_ADDR
        uint32_t gpio_all = 0;
    12d2:	fc042e23          	sw	zero,-36(s0)
C:\Users\billzhang\Desktop\I3C_XO5\sw_I3C_XO5\gpi_i3c_led\Debug/../src/main.c:175

        printf("\n[WAIT] Waiting for GPIO8 to become 0 (Reset State)...\n");
    12d6:	6789                	lui	a5,0x2
    12d8:	c6c78513          	addi	a0,a5,-916 # 1c6c <__iob+0x208>
    12dc:	2265                	jal	1484 <puts>
C:\Users\billzhang\Desktop\I3C_XO5\sw_I3C_XO5\gpi_i3c_led\Debug/../src/main.c:177
        while (1) {
            gpio_input_get(&gpio_inst, 0, &gpio_all);
    12de:	fdc40793          	addi	a5,s0,-36
    12e2:	863e                	mv	a2,a5
    12e4:	4581                	li	a1,0
    12e6:	91c18513          	addi	a0,gp,-1764 # 1f30 <gpio_inst>
    12ea:	3e5d                	jal	ea0 <gpio_input_get>
C:\Users\billzhang\Desktop\I3C_XO5\sw_I3C_XO5\gpi_i3c_led\Debug/../src/main.c:178
            if (!(gpio_all & (1 << 8))) {
    12ec:	fdc42783          	lw	a5,-36(s0)
    12f0:	1007f793          	andi	a5,a5,256
    12f4:	c789                	beqz	a5,12fe <main+0x1da>
C:\Users\billzhang\Desktop\I3C_XO5\sw_I3C_XO5\gpi_i3c_led\Debug/../src/main.c:181
                break; // 等待開關復位到 0
            }
            simple_delay_ms(50);
    12f6:	03200513          	li	a0,50
    12fa:	39b1                	jal	f56 <simple_delay_ms>
C:\Users\billzhang\Desktop\I3C_XO5\sw_I3C_XO5\gpi_i3c_led\Debug/../src/main.c:177
            gpio_input_get(&gpio_inst, 0, &gpio_all);
    12fc:	b7cd                	j	12de <main+0x1ba>
C:\Users\billzhang\Desktop\I3C_XO5\sw_I3C_XO5\gpi_i3c_led\Debug/../src/main.c:179
                break; // 等待開關復位到 0
    12fe:	0001                	nop
C:\Users\billzhang\Desktop\I3C_XO5\sw_I3C_XO5\gpi_i3c_led\Debug/../src/main.c:185
        }
        
        // 當 GPIO8 = 0 時，燈號全暗，代表系統已準備好接收新的觸發
        set_led_all_off();
    1300:	3941                	jal	f90 <set_led_all_off>
C:\Users\billzhang\Desktop\I3C_XO5\sw_I3C_XO5\gpi_i3c_led\Debug/../src/main.c:187

        printf("[WAIT] GPIO8 is 0. Now waiting for GPIO8 = 1 to TRIGGER...\n");
    1302:	6789                	lui	a5,0x2
    1304:	ca478513          	addi	a0,a5,-860 # 1ca4 <__iob+0x240>
    1308:	2ab5                	jal	1484 <puts>
C:\Users\billzhang\Desktop\I3C_XO5\sw_I3C_XO5\gpi_i3c_led\Debug/../src/main.c:189
        while (1) {
            gpio_input_get(&gpio_inst, 0, &gpio_all);
    130a:	fdc40793          	addi	a5,s0,-36
    130e:	863e                	mv	a2,a5
    1310:	4581                	li	a1,0
    1312:	91c18513          	addi	a0,gp,-1764 # 1f30 <gpio_inst>
    1316:	3669                	jal	ea0 <gpio_input_get>
C:\Users\billzhang\Desktop\I3C_XO5\sw_I3C_XO5\gpi_i3c_led\Debug/../src/main.c:190
            if (gpio_all & (1 << 8)) {
    1318:	fdc42783          	lw	a5,-36(s0)
    131c:	1007f793          	andi	a5,a5,256
    1320:	e789                	bnez	a5,132a <main+0x206>
C:\Users\billzhang\Desktop\I3C_XO5\sw_I3C_XO5\gpi_i3c_led\Debug/../src/main.c:193
                break; // 偵測到開關由 0 變 1
            }
            simple_delay_ms(50);
    1322:	03200513          	li	a0,50
    1326:	3905                	jal	f56 <simple_delay_ms>
C:\Users\billzhang\Desktop\I3C_XO5\sw_I3C_XO5\gpi_i3c_led\Debug/../src/main.c:189
            gpio_input_get(&gpio_inst, 0, &gpio_all);
    1328:	b7cd                	j	130a <main+0x1e6>
C:\Users\billzhang\Desktop\I3C_XO5\sw_I3C_XO5\gpi_i3c_led\Debug/../src/main.c:191
                break; // 偵測到開關由 0 變 1
    132a:	0001                	nop
C:\Users\billzhang\Desktop\I3C_XO5\sw_I3C_XO5\gpi_i3c_led\Debug/../src/main.c:197
        }

        // 擷取 GPIO 9, 10, 11 (3個位元)
        uint8_t tx_val = (gpio_all >> 9) & 0x07;
    132c:	fdc42783          	lw	a5,-36(s0)
    1330:	83a5                	srli	a5,a5,0x9
    1332:	0ff7f793          	zext.b	a5,a5
    1336:	8b9d                	andi	a5,a5,7
    1338:	fef40223          	sb	a5,-28(s0)
C:\Users\billzhang\Desktop\I3C_XO5\sw_I3C_XO5\gpi_i3c_led\Debug/../src/main.c:198
        wr_buf[0] = tx_val;
    133c:	fe444703          	lbu	a4,-28(s0)
    1340:	80e18a23          	sb	a4,-2028(gp) # 1e28 <wr_buf>
C:\Users\billzhang\Desktop\I3C_XO5\sw_I3C_XO5\gpi_i3c_led\Debug/../src/main.c:204
#else
        // 防止沒有 GPIO 定義時卡死
        wr_buf[0] = 5; 
#endif

        printf("[RUN] Switch TRIGGERED! GPIO[9:11] value = %d. Starting Test...\n", wr_buf[0]);
    1344:	8141c783          	lbu	a5,-2028(gp) # 1e28 <wr_buf>
    1348:	85be                	mv	a1,a5
    134a:	6789                	lui	a5,0x2
    134c:	ce078513          	addi	a0,a5,-800 # 1ce0 <__iob+0x27c>
    1350:	2239                	jal	145e <printf>
C:\Users\billzhang\Desktop\I3C_XO5\sw_I3C_XO5\gpi_i3c_led\Debug/../src/main.c:207

        // ── 3.1: Master Private Write ────────────────────────────────
        printf("      Starting Private Write...\n");
    1352:	6789                	lui	a5,0x2
    1354:	d2478513          	addi	a0,a5,-732 # 1d24 <__iob+0x2c0>
    1358:	2235                	jal	1484 <puts>
C:\Users\billzhang\Desktop\I3C_XO5\sw_I3C_XO5\gpi_i3c_led\Debug/../src/main.c:208
        i3c_master_private_i3c_write(&i3cm, (uint8_t *)wr_buf, DATA_LENGTH, SLAVE_ADDR);
    135a:	02000693          	li	a3,32
    135e:	4605                	li	a2,1
    1360:	81418593          	addi	a1,gp,-2028 # 1e28 <wr_buf>
    1364:	9fc18513          	addi	a0,gp,-1540 # 2010 <i3cm>
    1368:	8dfff0ef          	jal	ra,c46 <i3c_master_private_i3c_write>
C:\Users\billzhang\Desktop\I3C_XO5\sw_I3C_XO5\gpi_i3c_led\Debug/../src/main.c:209
        simple_delay_ms(100);
    136c:	06400513          	li	a0,100
    1370:	36dd                	jal	f56 <simple_delay_ms>
C:\Users\billzhang\Desktop\I3C_XO5\sw_I3C_XO5\gpi_i3c_led\Debug/../src/main.c:212

        // ── 3.2: Master Private Read ─────────────────────────────────
        printf("      Starting Private Read...\n");
    1372:	6789                	lui	a5,0x2
    1374:	d4478513          	addi	a0,a5,-700 # 1d44 <__iob+0x2e0>
    1378:	2231                	jal	1484 <puts>
C:\Users\billzhang\Desktop\I3C_XO5\sw_I3C_XO5\gpi_i3c_led\Debug/../src/main.c:213
        rd_buf[0] = 0x00; // 清除初始值，確保測試公平
    137a:	80018c23          	sb	zero,-2024(gp) # 1e2c <rd_buf>
C:\Users\billzhang\Desktop\I3C_XO5\sw_I3C_XO5\gpi_i3c_led\Debug/../src/main.c:214
        i3c_master_private_i3c_read(&i3cm, (uint8_t *)rd_buf, DATA_LENGTH, SLAVE_ADDR);
    137e:	02000693          	li	a3,32
    1382:	4605                	li	a2,1
    1384:	81818593          	addi	a1,gp,-2024 # 1e2c <rd_buf>
    1388:	9fc18513          	addi	a0,gp,-1540 # 2010 <i3cm>
    138c:	f58ff0ef          	jal	ra,ae4 <i3c_master_private_i3c_read>
C:\Users\billzhang\Desktop\I3C_XO5\sw_I3C_XO5\gpi_i3c_led\Debug/../src/main.c:217

        // ── 3.3: Result Verification ─────────────────────────────────
        printf("      Transmitted: %d, Received: %d\n", wr_buf[0], rd_buf[0]);
    1390:	8141c783          	lbu	a5,-2028(gp) # 1e28 <wr_buf>
    1394:	873e                	mv	a4,a5
    1396:	8181c783          	lbu	a5,-2024(gp) # 1e2c <rd_buf>
    139a:	863e                	mv	a2,a5
    139c:	85ba                	mv	a1,a4
    139e:	6789                	lui	a5,0x2
    13a0:	d6478513          	addi	a0,a5,-668 # 1d64 <__iob+0x300>
    13a4:	286d                	jal	145e <printf>
C:\Users\billzhang\Desktop\I3C_XO5\sw_I3C_XO5\gpi_i3c_led\Debug/../src/main.c:219

        if (rd_buf[0] == wr_buf[0]) {
    13a6:	8181c703          	lbu	a4,-2024(gp) # 1e2c <rd_buf>
    13aa:	8141c783          	lbu	a5,-2028(gp) # 1e28 <wr_buf>
    13ae:	00f71e63          	bne	a4,a5,13ca <main+0x2a6>
C:\Users\billzhang\Desktop\I3C_XO5\sw_I3C_XO5\gpi_i3c_led\Debug/../src/main.c:220
            printf(">>    All data match! TEST PASSED. Displaying %d LEDs.\n", rd_buf[0]);
    13b2:	8181c783          	lbu	a5,-2024(gp) # 1e2c <rd_buf>
    13b6:	85be                	mv	a1,a5
    13b8:	6789                	lui	a5,0x2
    13ba:	d8c78513          	addi	a0,a5,-628 # 1d8c <__iob+0x328>
    13be:	2045                	jal	145e <printf>
C:\Users\billzhang\Desktop\I3C_XO5\sw_I3C_XO5\gpi_i3c_led\Debug/../src/main.c:222
            // 成功：點亮對應數量的 LED (例如值為 5，則點亮 GPIO 0~4)
            set_led_bar(rd_buf[0]);
    13c0:	8181c783          	lbu	a5,-2024(gp) # 1e2c <rd_buf>
    13c4:	853e                	mv	a0,a5
    13c6:	31ad                	jal	1030 <set_led_bar>
    13c8:	b729                	j	12d2 <main+0x1ae>
C:\Users\billzhang\Desktop\I3C_XO5\sw_I3C_XO5\gpi_i3c_led\Debug/../src/main.c:224
        } else {
            printf(">>    ERROR: Data mismatch! TEST FAILED.\n");
    13ca:	6789                	lui	a5,0x2
    13cc:	dc478513          	addi	a0,a5,-572 # 1dc4 <__iob+0x360>
    13d0:	2855                	jal	1484 <puts>
C:\Users\billzhang\Desktop\I3C_XO5\sw_I3C_XO5\gpi_i3c_led\Debug/../src/main.c:226
            // 失敗：GPIO 0 閃爍 5 次，然後回歸等待狀態
            for(int k = 0; k < 5; k++) {
    13d2:	fe042423          	sw	zero,-24(s0)
    13d6:	a005                	j	13f6 <main+0x2d2>
C:\Users\billzhang\Desktop\I3C_XO5\sw_I3C_XO5\gpi_i3c_led\Debug/../src/main.c:227 (discriminator 3)
                set_led_all_off();
    13d8:	3e65                	jal	f90 <set_led_all_off>
C:\Users\billzhang\Desktop\I3C_XO5\sw_I3C_XO5\gpi_i3c_led\Debug/../src/main.c:228 (discriminator 3)
                set_led_on(0);
    13da:	4501                	li	a0,0
    13dc:	3ecd                	jal	fce <set_led_on>
C:\Users\billzhang\Desktop\I3C_XO5\sw_I3C_XO5\gpi_i3c_led\Debug/../src/main.c:229 (discriminator 3)
                simple_delay_ms(200);
    13de:	0c800513          	li	a0,200
    13e2:	3e95                	jal	f56 <simple_delay_ms>
C:\Users\billzhang\Desktop\I3C_XO5\sw_I3C_XO5\gpi_i3c_led\Debug/../src/main.c:230 (discriminator 3)
                set_led_all_off();
    13e4:	3675                	jal	f90 <set_led_all_off>
C:\Users\billzhang\Desktop\I3C_XO5\sw_I3C_XO5\gpi_i3c_led\Debug/../src/main.c:231 (discriminator 3)
                simple_delay_ms(200);
    13e6:	0c800513          	li	a0,200
    13ea:	36b5                	jal	f56 <simple_delay_ms>
C:\Users\billzhang\Desktop\I3C_XO5\sw_I3C_XO5\gpi_i3c_led\Debug/../src/main.c:226 (discriminator 3)
            for(int k = 0; k < 5; k++) {
    13ec:	fe842783          	lw	a5,-24(s0)
    13f0:	0785                	addi	a5,a5,1
    13f2:	fef42423          	sw	a5,-24(s0)
C:\Users\billzhang\Desktop\I3C_XO5\sw_I3C_XO5\gpi_i3c_led\Debug/../src/main.c:226 (discriminator 1)
    13f6:	fe842703          	lw	a4,-24(s0)
    13fa:	4791                	li	a5,4
    13fc:	fce7dee3          	bge	a5,a4,13d8 <main+0x2b4>
C:\Users\billzhang\Desktop\I3C_XO5\sw_I3C_XO5\gpi_i3c_led\Debug/../src/main.c:171
    while (1) {
    1400:	bdc9                	j	12d2 <main+0x1ae>

00001402 <delayCycle>:
delayCycle():
C:\Users\billzhang\Desktop\I3C_XO5\sw_I3C_XO5\gpi_i3c_led\Debug/../src/utils.c:75
}

#else

void delayCycle(uint32_t cycle)
{
    1402:	7179                	addi	sp,sp,-48
    1404:	d622                	sw	s0,44(sp)
    1406:	1800                	addi	s0,sp,48
    1408:	fca42e23          	sw	a0,-36(s0)
C:\Users\billzhang\Desktop\I3C_XO5\sw_I3C_XO5\gpi_i3c_led\Debug/../src/utils.c:78
    if (!RTL_SIM)
    {
    	volatile uint32_t count = cycle;
    140c:	fdc42783          	lw	a5,-36(s0)
    1410:	fef42623          	sw	a5,-20(s0)
C:\Users\billzhang\Desktop\I3C_XO5\sw_I3C_XO5\gpi_i3c_led\Debug/../src/utils.c:79
    	count *= CYCLE_HZ;
    1414:	fec42703          	lw	a4,-20(s0)
    1418:	6789                	lui	a5,0x2
    141a:	08d78793          	addi	a5,a5,141 # 208d <_bss_end+0x19>
    141e:	02f707b3          	mul	a5,a4,a5
    1422:	fef42623          	sw	a5,-20(s0)
C:\Users\billzhang\Desktop\I3C_XO5\sw_I3C_XO5\gpi_i3c_led\Debug/../src/utils.c:81

    	while(count--)
    1426:	a011                	j	142a <delayCycle+0x28>
C:\Users\billzhang\Desktop\I3C_XO5\sw_I3C_XO5\gpi_i3c_led\Debug/../src/utils.c:82
    		continue;
    1428:	0001                	nop
C:\Users\billzhang\Desktop\I3C_XO5\sw_I3C_XO5\gpi_i3c_led\Debug/../src/utils.c:81
    	while(count--)
    142a:	fec42783          	lw	a5,-20(s0)
    142e:	fff78713          	addi	a4,a5,-1
    1432:	fee42623          	sw	a4,-20(s0)
    1436:	fbed                	bnez	a5,1428 <delayCycle+0x26>
C:\Users\billzhang\Desktop\I3C_XO5\sw_I3C_XO5\gpi_i3c_led\Debug/../src/utils.c:88
    } else
    {
    	uint32_t count_sim = 10;
    	while (count_sim--);
    }
}
    1438:	0001                	nop
    143a:	0001                	nop
    143c:	5432                	lw	s0,44(sp)
    143e:	6145                	addi	sp,sp,48
    1440:	8082                	ret

00001442 <delayMS>:
delayMS():
C:\Users\billzhang\Desktop\I3C_XO5\sw_I3C_XO5\gpi_i3c_led\Debug/../src/utils.c:91

void __attribute__ ((weak)) delayMS(uint32_t ms)
{
    1442:	1101                	addi	sp,sp,-32
    1444:	ce06                	sw	ra,28(sp)
    1446:	cc22                	sw	s0,24(sp)
    1448:	1000                	addi	s0,sp,32
    144a:	fea42623          	sw	a0,-20(s0)
C:\Users\billzhang\Desktop\I3C_XO5\sw_I3C_XO5\gpi_i3c_led\Debug/../src/utils.c:92
	delayCycle(ms);
    144e:	fec42503          	lw	a0,-20(s0)
    1452:	3f45                	jal	1402 <delayCycle>
C:\Users\billzhang\Desktop\I3C_XO5\sw_I3C_XO5\gpi_i3c_led\Debug/../src/utils.c:93
}
    1454:	0001                	nop
    1456:	40f2                	lw	ra,28(sp)
    1458:	4462                	lw	s0,24(sp)
    145a:	6105                	addi	sp,sp,32
    145c:	8082                	ret

0000145e <printf>:
printf():
    145e:	7139                	addi	sp,sp,-64
    1460:	da3e                	sw	a5,52(sp)
    1462:	6789                	lui	a5,0x2
    1464:	d22e                	sw	a1,36(sp)
    1466:	85aa                	mv	a1,a0
    1468:	a687a503          	lw	a0,-1432(a5) # 1a68 <__iob+0x4>
    146c:	d432                	sw	a2,40(sp)
    146e:	1050                	addi	a2,sp,36
    1470:	ce06                	sw	ra,28(sp)
    1472:	d636                	sw	a3,44(sp)
    1474:	d83a                	sw	a4,48(sp)
    1476:	dc42                	sw	a6,56(sp)
    1478:	de46                	sw	a7,60(sp)
    147a:	c632                	sw	a2,12(sp)
    147c:	2049                	jal	14fe <vfprintf>
    147e:	40f2                	lw	ra,28(sp)
    1480:	6121                	addi	sp,sp,64
    1482:	8082                	ret

00001484 <puts>:
puts():
    1484:	57a002ef          	jal	t0,19fe <__riscv_save_0>
    1488:	6789                	lui	a5,0x2
    148a:	a687a583          	lw	a1,-1432(a5) # 1a68 <__iob+0x4>
    148e:	1141                	addi	sp,sp,-16
    1490:	842a                	mv	s0,a0
    1492:	0045c783          	lbu	a5,4(a1)
    1496:	4481                	li	s1,0
    1498:	8b89                	andi	a5,a5,2
    149a:	eb91                	bnez	a5,14ae <puts+0x2a>
    149c:	54fd                	li	s1,-1
    149e:	8526                	mv	a0,s1
    14a0:	0141                	addi	sp,sp,16
    14a2:	a341                	j	1a22 <__riscv_restore_0>
    14a4:	c62e                	sw	a1,12(sp)
    14a6:	9782                	jalr	a5
    14a8:	45b2                	lw	a1,12(sp)
    14aa:	c111                	beqz	a0,14ae <puts+0x2a>
    14ac:	54fd                	li	s1,-1
    14ae:	00044503          	lbu	a0,0(s0)
    14b2:	0405                	addi	s0,s0,1
    14b4:	459c                	lw	a5,8(a1)
    14b6:	f57d                	bnez	a0,14a4 <puts+0x20>
    14b8:	4529                	li	a0,10
    14ba:	9782                	jalr	a5
    14bc:	d16d                	beqz	a0,149e <puts+0x1a>
    14be:	bff9                	j	149c <puts+0x18>

000014c0 <__ultoa_invert>:
__ultoa_invert():
    14c0:	20067793          	andi	a5,a2,512
    14c4:	872a                	mv	a4,a0
    14c6:	852e                	mv	a0,a1
    14c8:	02700593          	li	a1,39
    14cc:	c781                	beqz	a5,14d4 <__ultoa_invert+0x14>
    14ce:	dff67613          	andi	a2,a2,-513
    14d2:	459d                	li	a1,7
    14d4:	4825                	li	a6,9
    14d6:	86ba                	mv	a3,a4
    14d8:	02c6f7b3          	remu	a5,a3,a2
    14dc:	0ff7f793          	zext.b	a5,a5
    14e0:	02c75733          	divu	a4,a4,a2
    14e4:	00f87563          	bgeu	a6,a5,14ee <__ultoa_invert+0x2e>
    14e8:	97ae                	add	a5,a5,a1
    14ea:	0ff7f793          	zext.b	a5,a5
    14ee:	0505                	addi	a0,a0,1
    14f0:	03078793          	addi	a5,a5,48
    14f4:	fef50fa3          	sb	a5,-1(a0)
    14f8:	fcc6ffe3          	bgeu	a3,a2,14d6 <__ultoa_invert+0x16>
    14fc:	8082                	ret

000014fe <vfprintf>:
vfprintf():
    14fe:	4d0002ef          	jal	t0,19ce <__riscv_save_12>
    1502:	00454783          	lbu	a5,4(a0)
    1506:	1101                	addi	sp,sp,-32
    1508:	597d                	li	s2,-1
    150a:	8b89                	andi	a5,a5,2
    150c:	48078263          	beqz	a5,1990 <vfprintf+0x492>
    1510:	67c1                	lui	a5,0x10
    1512:	17fd                	addi	a5,a5,-1
    1514:	8aaa                	mv	s5,a0
    1516:	8a32                	mv	s4,a2
    1518:	4901                	li	s2,0
    151a:	01410c13          	addi	s8,sp,20
    151e:	6c85                	lui	s9,0x1
    1520:	c43e                	sw	a5,8(sp)
    1522:	0005c483          	lbu	s1,0(a1)
    1526:	46048563          	beqz	s1,1990 <vfprintf+0x492>
    152a:	02500793          	li	a5,37
    152e:	00158b93          	addi	s7,a1,1
    1532:	00f49863          	bne	s1,a5,1542 <vfprintf+0x44>
    1536:	0015c483          	lbu	s1,1(a1)
    153a:	00258b93          	addi	s7,a1,2
    153e:	00f49763          	bne	s1,a5,154c <vfprintf+0x4e>
    1542:	0905                	addi	s2,s2,1
    1544:	85d6                	mv	a1,s5
    1546:	8526                	mv	a0,s1
    1548:	219d                	jal	19ae <fputc>
    154a:	a295                	j	16ae <vfprintf+0x1b0>
    154c:	4981                	li	s3,0
    154e:	4b01                	li	s6,0
    1550:	4401                	li	s0,0
    1552:	467d                	li	a2,31
    1554:	06c00593          	li	a1,108
    1558:	06800513          	li	a0,104
    155c:	06a00813          	li	a6,106
    1560:	07400893          	li	a7,116
    1564:	4325                	li	t1,9
    1566:	02a00e13          	li	t3,42
    156a:	02e00e93          	li	t4,46
    156e:	4729                	li	a4,10
    1570:	07f00f13          	li	t5,127
    1574:	02b00693          	li	a3,43
    1578:	02d00f93          	li	t6,45
    157c:	03000293          	li	t0,48
    1580:	02000393          	li	t2,32
    1584:	02300d93          	li	s11,35
    1588:	04866d63          	bltu	a2,s0,15e2 <vfprintf+0xe4>
    158c:	04d48063          	beq	s1,a3,15cc <vfprintf+0xce>
    1590:	0296e363          	bltu	a3,s1,15b6 <vfprintf+0xb8>
    1594:	02748e63          	beq	s1,t2,15d0 <vfprintf+0xd2>
    1598:	05b48263          	beq	s1,s11,15dc <vfprintf+0xde>
    159c:	fd048793          	addi	a5,s1,-48
    15a0:	0ff7f793          	zext.b	a5,a5
    15a4:	04f36c63          	bltu	t1,a5,15fc <vfprintf+0xfe>
    15a8:	04047493          	andi	s1,s0,64
    15ac:	c0b1                	beqz	s1,15f0 <vfprintf+0xf2>
    15ae:	02e989b3          	mul	s3,s3,a4
    15b2:	99be                	add	s3,s3,a5
    15b4:	a039                	j	15c2 <vfprintf+0xc4>
    15b6:	03f48063          	beq	s1,t6,15d6 <vfprintf+0xd8>
    15ba:	fe5491e3          	bne	s1,t0,159c <vfprintf+0x9e>
    15be:	00146413          	ori	s0,s0,1
    15c2:	000bc483          	lbu	s1,0(s7)
    15c6:	0b85                	addi	s7,s7,1
    15c8:	f0e1                	bnez	s1,1588 <vfprintf+0x8a>
    15ca:	a069                	j	1654 <vfprintf+0x156>
    15cc:	00246413          	ori	s0,s0,2
    15d0:	00446413          	ori	s0,s0,4
    15d4:	b7fd                	j	15c2 <vfprintf+0xc4>
    15d6:	00846413          	ori	s0,s0,8
    15da:	b7e5                	j	15c2 <vfprintf+0xc4>
    15dc:	01046413          	ori	s0,s0,16
    15e0:	b7cd                	j	15c2 <vfprintf+0xc4>
    15e2:	fa8f7de3          	bgeu	t5,s0,159c <vfprintf+0x9e>
    15e6:	04b49763          	bne	s1,a1,1634 <vfprintf+0x136>
    15ea:	08046413          	ori	s0,s0,128
    15ee:	bfd1                	j	15c2 <vfprintf+0xc4>
    15f0:	02eb0b33          	mul	s6,s6,a4
    15f4:	02046413          	ori	s0,s0,32
    15f8:	9b3e                	add	s6,s6,a5
    15fa:	b7e1                	j	15c2 <vfprintf+0xc4>
    15fc:	03c49363          	bne	s1,t3,1622 <vfprintf+0x124>
    1600:	04047493          	andi	s1,s0,64
    1604:	000a2783          	lw	a5,0(s4)
    1608:	0a11                	addi	s4,s4,4
    160a:	e4c5                	bnez	s1,16b2 <vfprintf+0x1b4>
    160c:	0007c663          	bltz	a5,1618 <vfprintf+0x11a>
    1610:	02046413          	ori	s0,s0,32
    1614:	8b3e                	mv	s6,a5
    1616:	b775                	j	15c2 <vfprintf+0xc4>
    1618:	40f00b33          	neg	s6,a5
    161c:	02846413          	ori	s0,s0,40
    1620:	b74d                	j	15c2 <vfprintf+0xc4>
    1622:	fdd492e3          	bne	s1,t4,15e6 <vfprintf+0xe8>
    1626:	04047793          	andi	a5,s0,64
    162a:	36079363          	bnez	a5,1990 <vfprintf+0x492>
    162e:	04046413          	ori	s0,s0,64
    1632:	bf41                	j	15c2 <vfprintf+0xc4>
    1634:	00a49a63          	bne	s1,a0,1648 <vfprintf+0x14a>
    1638:	10047793          	andi	a5,s0,256
    163c:	c399                	beqz	a5,1642 <vfprintf+0x144>
    163e:	20046413          	ori	s0,s0,512
    1642:	10046413          	ori	s0,s0,256
    1646:	bfb5                	j	15c2 <vfprintf+0xc4>
    1648:	0ef4f793          	andi	a5,s1,239
    164c:	f7078be3          	beq	a5,a6,15c2 <vfprintf+0xc4>
    1650:	f71489e3          	beq	s1,a7,15c2 <vfprintf+0xc4>
    1654:	0009d763          	bgez	s3,1662 <vfprintf+0x164>
    1658:	fbf47413          	andi	s0,s0,-65
    165c:	0442                	slli	s0,s0,0x10
    165e:	8041                	srli	s0,s0,0x10
    1660:	4981                	li	s3,0
    1662:	0204e793          	ori	a5,s1,32
    1666:	f9b78713          	addi	a4,a5,-101 # ff9b <_stack_start+0xd41b>
    166a:	0ff77713          	zext.b	a4,a4
    166e:	4689                	li	a3,2
    1670:	00e6f663          	bgeu	a3,a4,167c <vfprintf+0x17e>
    1674:	06100713          	li	a4,97
    1678:	02e79f63          	bne	a5,a4,16b6 <vfprintf+0x1b8>
    167c:	007a0493          	addi	s1,s4,7
    1680:	98e1                	andi	s1,s1,-8
    1682:	6789                	lui	a5,0x2
    1684:	04a1                	addi	s1,s1,8
    1686:	4a1d                	li	s4,7
    1688:	df878d93          	addi	s11,a5,-520 # 1df8 <__iob+0x394>
    168c:	8821                	andi	s0,s0,8
    168e:	c051                	beqz	s0,1712 <vfprintf+0x214>
    1690:	414b0b33          	sub	s6,s6,s4
    1694:	014d8433          	add	s0,s11,s4
    1698:	088d9063          	bne	s11,s0,1718 <vfprintf+0x21a>
    169c:	9952                	add	s2,s2,s4
    169e:	845a                	mv	s0,s6
    16a0:	2e804263          	bgtz	s0,1984 <vfprintf+0x486>
    16a4:	000b5363          	bgez	s6,16aa <vfprintf+0x1ac>
    16a8:	4b01                	li	s6,0
    16aa:	995a                	add	s2,s2,s6
    16ac:	8a26                	mv	s4,s1
    16ae:	85de                	mv	a1,s7
    16b0:	bd8d                	j	1522 <vfprintf+0x24>
    16b2:	89be                	mv	s3,a5
    16b4:	b739                	j	15c2 <vfprintf+0xc4>
    16b6:	06300713          	li	a4,99
    16ba:	00e49c63          	bne	s1,a4,16d2 <vfprintf+0x1d4>
    16be:	000a2783          	lw	a5,0(s4)
    16c2:	004a0493          	addi	s1,s4,4
    16c6:	01410d93          	addi	s11,sp,20
    16ca:	00f10a23          	sb	a5,20(sp)
    16ce:	4a05                	li	s4,1
    16d0:	bf75                	j	168c <vfprintf+0x18e>
    16d2:	07300713          	li	a4,115
    16d6:	04e49763          	bne	s1,a4,1724 <vfprintf+0x226>
    16da:	000a2d83          	lw	s11,0(s4)
    16de:	004a0493          	addi	s1,s4,4
    16e2:	000d9563          	bnez	s11,16ec <vfprintf+0x1ee>
    16e6:	6789                	lui	a5,0x2
    16e8:	df078d93          	addi	s11,a5,-528 # 1df0 <__iob+0x38c>
    16ec:	04047793          	andi	a5,s0,64
    16f0:	55fd                	li	a1,-1
    16f2:	c391                	beqz	a5,16f6 <vfprintf+0x1f8>
    16f4:	85ce                	mv	a1,s3
    16f6:	856e                	mv	a0,s11
    16f8:	2c79                	jal	1996 <strnlen>
    16fa:	8a2a                	mv	s4,a0
    16fc:	bf41                	j	168c <vfprintf+0x18e>
    16fe:	85d6                	mv	a1,s5
    1700:	02000513          	li	a0,32
    1704:	246d                	jal	19ae <fputc>
    1706:	1b7d                	addi	s6,s6,-1
    1708:	41640933          	sub	s2,s0,s6
    170c:	ff6a69e3          	bltu	s4,s6,16fe <vfprintf+0x200>
    1710:	b741                	j	1690 <vfprintf+0x192>
    1712:	012b0433          	add	s0,s6,s2
    1716:	bfcd                	j	1708 <vfprintf+0x20a>
    1718:	000dc503          	lbu	a0,0(s11)
    171c:	85d6                	mv	a1,s5
    171e:	0d85                	addi	s11,s11,1
    1720:	2479                	jal	19ae <fputc>
    1722:	bf9d                	j	1698 <vfprintf+0x19a>
    1724:	06400713          	li	a4,100
    1728:	00e48663          	beq	s1,a4,1734 <vfprintf+0x236>
    172c:	06900713          	li	a4,105
    1730:	04e49e63          	bne	s1,a4,178c <vfprintf+0x28e>
    1734:	08047793          	andi	a5,s0,128
    1738:	000a2503          	lw	a0,0(s4)
    173c:	004a0493          	addi	s1,s4,4
    1740:	cb95                	beqz	a5,1774 <vfprintf+0x276>
    1742:	00055663          	bgez	a0,174e <vfprintf+0x250>
    1746:	40a00533          	neg	a0,a0
    174a:	40046413          	ori	s0,s0,1024
    174e:	fef47793          	andi	a5,s0,-17
    1752:	01079d13          	slli	s10,a5,0x10
    1756:	04047413          	andi	s0,s0,64
    175a:	010d5d13          	srli	s10,s10,0x10
    175e:	c409                	beqz	s0,1768 <vfprintf+0x26a>
    1760:	00a9ea33          	or	s4,s3,a0
    1764:	060a0e63          	beqz	s4,17e0 <vfprintf+0x2e2>
    1768:	4629                	li	a2,10
    176a:	85e2                	mv	a1,s8
    176c:	3b91                	jal	14c0 <__ultoa_invert>
    176e:	41850a33          	sub	s4,a0,s8
    1772:	a0bd                	j	17e0 <vfprintf+0x2e2>
    1774:	10047793          	andi	a5,s0,256
    1778:	d7e9                	beqz	a5,1742 <vfprintf+0x244>
    177a:	20047793          	andi	a5,s0,512
    177e:	c781                	beqz	a5,1786 <vfprintf+0x288>
    1780:	0562                	slli	a0,a0,0x18
    1782:	8561                	srai	a0,a0,0x18
    1784:	bf7d                	j	1742 <vfprintf+0x244>
    1786:	0542                	slli	a0,a0,0x10
    1788:	8541                	srai	a0,a0,0x10
    178a:	bf65                	j	1742 <vfprintf+0x244>
    178c:	07500713          	li	a4,117
    1790:	10e49263          	bne	s1,a4,1894 <vfprintf+0x396>
    1794:	983d                	andi	s0,s0,-17
    1796:	0442                	slli	s0,s0,0x10
    1798:	8041                	srli	s0,s0,0x10
    179a:	4629                	li	a2,10
    179c:	08047793          	andi	a5,s0,128
    17a0:	000a2503          	lw	a0,0(s4)
    17a4:	004a0493          	addi	s1,s4,4
    17a8:	eb91                	bnez	a5,17bc <vfprintf+0x2be>
    17aa:	10047793          	andi	a5,s0,256
    17ae:	c799                	beqz	a5,17bc <vfprintf+0x2be>
    17b0:	20047793          	andi	a5,s0,512
    17b4:	12078863          	beqz	a5,18e4 <vfprintf+0x3e6>
    17b8:	0ff57513          	zext.b	a0,a0
    17bc:	ff947793          	andi	a5,s0,-7
    17c0:	01079d13          	slli	s10,a5,0x10
    17c4:	04047713          	andi	a4,s0,64
    17c8:	010d5d13          	srli	s10,s10,0x10
    17cc:	df59                	beqz	a4,176a <vfprintf+0x26c>
    17ce:	00a9e733          	or	a4,s3,a0
    17d2:	ff41                	bnez	a4,176a <vfprintf+0x26c>
    17d4:	9825                	andi	s0,s0,-23
    17d6:	01041d13          	slli	s10,s0,0x10
    17da:	010d5d13          	srli	s10,s10,0x10
    17de:	4a01                	li	s4,0
    17e0:	040d7713          	andi	a4,s10,64
    17e4:	10070363          	beqz	a4,18ea <vfprintf+0x3ec>
    17e8:	ffed7d93          	andi	s11,s10,-2
    17ec:	0dc2                	slli	s11,s11,0x10
    17ee:	010ddd93          	srli	s11,s11,0x10
    17f2:	8452                	mv	s0,s4
    17f4:	013a5d63          	bge	s4,s3,180e <vfprintf+0x310>
    17f8:	6705                	lui	a4,0x1
    17fa:	00ed7733          	and	a4,s10,a4
    17fe:	844e                	mv	s0,s3
    1800:	e719                	bnez	a4,180e <vfprintf+0x310>
    1802:	feed7793          	andi	a5,s10,-18
    1806:	01079d93          	slli	s11,a5,0x10
    180a:	010ddd93          	srli	s11,s11,0x10
    180e:	010df793          	andi	a5,s11,16
    1812:	0e078763          	beqz	a5,1900 <vfprintf+0x402>
    1816:	101c                	addi	a5,sp,32
    1818:	97d2                	add	a5,a5,s4
    181a:	ff37c703          	lbu	a4,-13(a5)
    181e:	03000793          	li	a5,48
    1822:	0cf71763          	bne	a4,a5,18f0 <vfprintf+0x3f2>
    1826:	fefdfd93          	andi	s11,s11,-17
    182a:	0dc2                	slli	s11,s11,0x10
    182c:	010ddd93          	srli	s11,s11,0x10
    1830:	008df793          	andi	a5,s11,8
    1834:	ef89                	bnez	a5,184e <vfprintf+0x350>
    1836:	001df793          	andi	a5,s11,1
    183a:	0e078863          	beqz	a5,192a <vfprintf+0x42c>
    183e:	89d2                	mv	s3,s4
    1840:	01645763          	bge	s0,s6,184e <vfprintf+0x350>
    1844:	408b0433          	sub	s0,s6,s0
    1848:	014409b3          	add	s3,s0,s4
    184c:	845a                	mv	s0,s6
    184e:	010df793          	andi	a5,s11,16
    1852:	408b0b33          	sub	s6,s6,s0
    1856:	0e078e63          	beqz	a5,1952 <vfprintf+0x454>
    185a:	85d6                	mv	a1,s5
    185c:	03000513          	li	a0,48
    1860:	22b9                	jal	19ae <fputc>
    1862:	00cdd793          	srli	a5,s11,0xc
    1866:	8b85                	andi	a5,a5,1
    1868:	e3f9                	bnez	a5,192e <vfprintf+0x430>
    186a:	0905                	addi	s2,s2,1
    186c:	844e                	mv	s0,s3
    186e:	108a4563          	blt	s4,s0,1978 <vfprintf+0x47a>
    1872:	4781                	li	a5,0
    1874:	0149c463          	blt	s3,s4,187c <vfprintf+0x37e>
    1878:	414987b3          	sub	a5,s3,s4
    187c:	993e                	add	s2,s2,a5
    187e:	8452                	mv	s0,s4
    1880:	e0040ee3          	beqz	s0,169c <vfprintf+0x19e>
    1884:	147d                	addi	s0,s0,-1
    1886:	008c07b3          	add	a5,s8,s0
    188a:	0007c503          	lbu	a0,0(a5)
    188e:	85d6                	mv	a1,s5
    1890:	2a39                	jal	19ae <fputc>
    1892:	b7fd                	j	1880 <vfprintf+0x382>
    1894:	06f00713          	li	a4,111
    1898:	04e48463          	beq	s1,a4,18e0 <vfprintf+0x3e2>
    189c:	07000713          	li	a4,112
    18a0:	00e49763          	bne	s1,a4,18ae <vfprintf+0x3b0>
    18a4:	010c8793          	addi	a5,s9,16 # 1010 <set_led_all_on+0x1c>
    18a8:	8c5d                	or	s0,s0,a5
    18aa:	4641                	li	a2,16
    18ac:	bdc5                	j	179c <vfprintf+0x29e>
    18ae:	07800713          	li	a4,120
    18b2:	02e79163          	bne	a5,a4,18d4 <vfprintf+0x3d6>
    18b6:	05800793          	li	a5,88
    18ba:	00f48463          	beq	s1,a5,18c2 <vfprintf+0x3c4>
    18be:	6785                	lui	a5,0x1
    18c0:	b7e5                	j	18a8 <vfprintf+0x3aa>
    18c2:	6789                	lui	a5,0x2
    18c4:	80078793          	addi	a5,a5,-2048 # 1800 <vfprintf+0x302>
    18c8:	8c5d                	or	s0,s0,a5
    18ca:	0442                	slli	s0,s0,0x10
    18cc:	8041                	srli	s0,s0,0x10
    18ce:	21000613          	li	a2,528
    18d2:	b5e9                	j	179c <vfprintf+0x29e>
    18d4:	85d6                	mv	a1,s5
    18d6:	02500513          	li	a0,37
    18da:	28d1                	jal	19ae <fputc>
    18dc:	0909                	addi	s2,s2,2
    18de:	b19d                	j	1544 <vfprintf+0x46>
    18e0:	4621                	li	a2,8
    18e2:	bd6d                	j	179c <vfprintf+0x29e>
    18e4:	47a2                	lw	a5,8(sp)
    18e6:	8d7d                	and	a0,a0,a5
    18e8:	bdd1                	j	17bc <vfprintf+0x2be>
    18ea:	8452                	mv	s0,s4
    18ec:	8dea                	mv	s11,s10
    18ee:	b705                	j	180e <vfprintf+0x310>
    18f0:	00cdd793          	srli	a5,s11,0xc
    18f4:	8b85                	andi	a5,a5,1
    18f6:	e399                	bnez	a5,18fc <vfprintf+0x3fe>
    18f8:	0405                	addi	s0,s0,1
    18fa:	bf1d                	j	1830 <vfprintf+0x332>
    18fc:	0409                	addi	s0,s0,2
    18fe:	bf0d                	j	1830 <vfprintf+0x332>
    1900:	406df793          	andi	a5,s11,1030
    1904:	d795                	beqz	a5,1830 <vfprintf+0x332>
    1906:	bfcd                	j	18f8 <vfprintf+0x3fa>
    1908:	85d6                	mv	a1,s5
    190a:	02000513          	li	a0,32
    190e:	c63e                	sw	a5,12(sp)
    1910:	2879                	jal	19ae <fputc>
    1912:	47b2                	lw	a5,12(sp)
    1914:	0785                	addi	a5,a5,1
    1916:	ff67c9e3          	blt	a5,s6,1908 <vfprintf+0x40a>
    191a:	4781                	li	a5,0
    191c:	008b4463          	blt	s6,s0,1924 <vfprintf+0x426>
    1920:	408b07b3          	sub	a5,s6,s0
    1924:	993e                	add	s2,s2,a5
    1926:	943e                	add	s0,s0,a5
    1928:	b71d                	j	184e <vfprintf+0x350>
    192a:	87a2                	mv	a5,s0
    192c:	b7ed                	j	1916 <vfprintf+0x418>
    192e:	6785                	lui	a5,0x1
    1930:	80078793          	addi	a5,a5,-2048 # 800 <i3c_master_entdaa_config+0x9a>
    1934:	00fdfdb3          	and	s11,s11,a5
    1938:	0dc2                	slli	s11,s11,0x10
    193a:	010ddd93          	srli	s11,s11,0x10
    193e:	0909                	addi	s2,s2,2
    1940:	05800513          	li	a0,88
    1944:	000d9463          	bnez	s11,194c <vfprintf+0x44e>
    1948:	07800513          	li	a0,120
    194c:	85d6                	mv	a1,s5
    194e:	2085                	jal	19ae <fputc>
    1950:	bf31                	j	186c <vfprintf+0x36e>
    1952:	406df793          	andi	a5,s11,1030
    1956:	f0078be3          	beqz	a5,186c <vfprintf+0x36e>
    195a:	002df793          	andi	a5,s11,2
    195e:	02000513          	li	a0,32
    1962:	c399                	beqz	a5,1968 <vfprintf+0x46a>
    1964:	02b00513          	li	a0,43
    1968:	400dfd93          	andi	s11,s11,1024
    196c:	000d8463          	beqz	s11,1974 <vfprintf+0x476>
    1970:	02d00513          	li	a0,45
    1974:	0905                	addi	s2,s2,1
    1976:	bfd9                	j	194c <vfprintf+0x44e>
    1978:	85d6                	mv	a1,s5
    197a:	03000513          	li	a0,48
    197e:	2805                	jal	19ae <fputc>
    1980:	147d                	addi	s0,s0,-1
    1982:	b5f5                	j	186e <vfprintf+0x370>
    1984:	85d6                	mv	a1,s5
    1986:	02000513          	li	a0,32
    198a:	2015                	jal	19ae <fputc>
    198c:	147d                	addi	s0,s0,-1
    198e:	bb09                	j	16a0 <vfprintf+0x1a2>
    1990:	854a                	mv	a0,s2
    1992:	6105                	addi	sp,sp,32
    1994:	a89d                	j	1a0a <__riscv_restore_12>

00001996 <strnlen>:
    1996:	95aa                	add	a1,a1,a0
    1998:	87aa                	mv	a5,a0
    199a:	00b78563          	beq	a5,a1,19a4 <strnlen+0xe>
    199e:	0007c703          	lbu	a4,0(a5)
    19a2:	e701                	bnez	a4,19aa <strnlen+0x14>
    19a4:	40a78533          	sub	a0,a5,a0
    19a8:	8082                	ret
    19aa:	0785                	addi	a5,a5,1
    19ac:	b7fd                	j	199a <strnlen+0x4>

000019ae <fputc>:
    19ae:	050002ef          	jal	t0,19fe <__riscv_save_0>
    19b2:	0045c703          	lbu	a4,4(a1)
    19b6:	8b09                	andi	a4,a4,2
    19b8:	cb01                	beqz	a4,19c8 <fputc+0x1a>
    19ba:	459c                	lw	a5,8(a1)
    19bc:	842a                	mv	s0,a0
    19be:	0ff57513          	zext.b	a0,a0
    19c2:	9782                	jalr	a5
    19c4:	00055363          	bgez	a0,19ca <fputc+0x1c>
    19c8:	547d                	li	s0,-1
    19ca:	8522                	mv	a0,s0
    19cc:	a899                	j	1a22 <__riscv_restore_0>

000019ce <__riscv_save_12>:
    19ce:	7139                	addi	sp,sp,-64
    19d0:	4301                	li	t1,0
    19d2:	c66e                	sw	s11,12(sp)
    19d4:	a019                	j	19da <__riscv_save_10+0x4>

000019d6 <__riscv_save_10>:
    19d6:	7139                	addi	sp,sp,-64
    19d8:	5341                	li	t1,-16
    19da:	c86a                	sw	s10,16(sp)
    19dc:	ca66                	sw	s9,20(sp)
    19de:	cc62                	sw	s8,24(sp)
    19e0:	ce5e                	sw	s7,28(sp)
    19e2:	a019                	j	19e8 <__riscv_save_4+0x4>

000019e4 <__riscv_save_4>:
    19e4:	7139                	addi	sp,sp,-64
    19e6:	5301                	li	t1,-32
    19e8:	d05a                	sw	s6,32(sp)
    19ea:	d256                	sw	s5,36(sp)
__riscv_save_7():
    19ec:	d452                	sw	s4,40(sp)
    19ee:	d64e                	sw	s3,44(sp)
    19f0:	d84a                	sw	s2,48(sp)
    19f2:	da26                	sw	s1,52(sp)
    19f4:	dc22                	sw	s0,56(sp)
    19f6:	de06                	sw	ra,60(sp)
    19f8:	40610133          	sub	sp,sp,t1
    19fc:	8282                	jr	t0

000019fe <__riscv_save_0>:
__riscv_save_1():
    19fe:	1141                	addi	sp,sp,-16
    1a00:	c04a                	sw	s2,0(sp)
    1a02:	c226                	sw	s1,4(sp)
    1a04:	c422                	sw	s0,8(sp)
    1a06:	c606                	sw	ra,12(sp)
    1a08:	8282                	jr	t0

00001a0a <__riscv_restore_12>:
__riscv_restore_12():
    1a0a:	4db2                	lw	s11,12(sp)
    1a0c:	0141                	addi	sp,sp,16

00001a0e <__riscv_restore_10>:
    1a0e:	4d02                	lw	s10,0(sp)
    1a10:	4c92                	lw	s9,4(sp)
    1a12:	4c22                	lw	s8,8(sp)
    1a14:	4bb2                	lw	s7,12(sp)
    1a16:	0141                	addi	sp,sp,16

00001a18 <__riscv_restore_4>:
    1a18:	4b02                	lw	s6,0(sp)
    1a1a:	4a92                	lw	s5,4(sp)
    1a1c:	4a22                	lw	s4,8(sp)
    1a1e:	49b2                	lw	s3,12(sp)
    1a20:	0141                	addi	sp,sp,16

00001a22 <__riscv_restore_0>:
    1a22:	4902                	lw	s2,0(sp)
    1a24:	4492                	lw	s1,4(sp)
    1a26:	4422                	lw	s0,8(sp)
    1a28:	40b2                	lw	ra,12(sp)
    1a2a:	0141                	addi	sp,sp,16
    1a2c:	8082                	ret
	...
